Certificate:
    Data:
        Version: 3 (0x2)
        Serial Number: 2 (0x2)
        Signature Algorithm: sha1WithRSAEncryption
        Issuer: C=US, ST=California, L=Mountain View, O=Test CA, CN=Test Root CA
        Validity
            Not Before: Dec  6 01:05:39 2010 GMT
            Not After : Nov 23 01:05:39 2060 GMT
        Subject: C=US, ST=California, L=Mountain View, O=Test CA, CN=127.0.0.1
        Subject Public Key Info:
            Public Key Algorithm: rsaEncryption
            RSA Public Key: (1024 bit)
                Modulus (1024 bit):
                    00:c8:a8:e7:59:13:08:20:9b:55:83:33:b2:1b:58:
                    29:5f:0a:13:b5:f6:71:5e:69:e5:76:c5:50:dd:32:
                    8e:ad:11:2e:fe:47:f8:3a:9f:d3:66:74:70:b2:ad:
                    19:1d:b7:03:64:7d:97:f7:57:38:26:22:cd:06:62:
                    6b:71:60:d3:55:cc:96:db:e3:e7:16:76:61:49:b5:
                    13:20:2b:45:2e:4a:11:52:2d:c9:e0:be:d0:5a:5f:
                    fe:6e:e6:a1:22:80:81:cb:e7:5e:b8:46:20:7a:85:
                    8a:fb:d5:7c:e1:f6:83:67:92:a5:37:a1:58:82:c6:
                    fc:90:2e:4d:d6:3d:68:86:67
                Exponent: 65537 (0x10001)
        X509v3 extensions:
            X509v3 Basic Constraints: critical
                CA:FALSE
            X509v3 Subject Key Identifier: 
                1E:43:8E:14:6F:C3:47:85:45:BE:27:89:6C:F6:5B:98:D7:0B:DF:FD
            X509v3 Authority Key Identifier: 
                keyid:CB:0C:83:29:5E:38:A2:D6:9F:F7:76:FB:B3:B6:48:84:4E:F8:4D:F3

            X509v3 Extended Key Usage: 
                TLS Web Server Authentication, TLS Web Client Authentication
            X509v3 Subject Alternative Name: 
                IP Address:127.0.0.1
    Signature Algorithm: sha1WithRSAEncryption
        75:f7:88:9c:c6:fe:44:17:d5:34:16:ca:80:58:c1:8c:70:95:
        d6:d9:39:d3:44:01:36:a9:ed:73:80:7e:62:ee:3a:5a:ad:ee:
        88:42:1e:72:8e:21:b6:12:30:a2:1e:2b:6a:1f:ec:48:c1:9c:
        28:8c:e2:7a:3a:df:7f:fe:2b:2b:18:81:32:b6:f9:ae:e6:de:
        3a:6c:90:9f:da:0f:9e:c7:d4:e5:e0:2c:ab:86:4e:c4:ee:63:
        8f:e0:b6:31:a0:52:b5:b3:cf:24:17:f7:14:78:7a:56:e9:43:
        f4:8c:2c:b8:4f:5b:ff:21:a8:8f:3c:38:32:52:6f:e3:a9:6d:
        6e:23
-----BEGIN CERTIFICATE-----
MIICvDCCAiWgAwIBAgIBAjANBgkqhkiG9w0BAQUFADBjMQswCQYDVQQGEwJVUzET
MBEGA1UECAwKQ2FsaWZvcm5pYTEWMBQGA1UEBwwNTW91bnRhaW4gVmlldzEQMA4G
A1UECgwHVGVzdCBDQTEVMBMGA1UEAwwMVGVzdCBSb290IENBMCAXDTEwMTIwNjAx
MDUzOVoYDzIwNjAxMTIzMDEwNTM5WjBgMQswCQYDVQQGEwJVUzETMBEGA1UECAwK
Q2FsaWZvcm5pYTEWMBQGA1UEBwwNTW91bnRhaW4gVmlldzEQMA4GA1UECgwHVGVz
dCBDQTESMBAGA1UEAwwJMTI3LjAuMC4xMIGfMA0GCSqGSIb3DQEBAQUAA4GNADCB
iQKBgQDIqOdZEwggm1WDM7IbWClfChO19nFeaeV2xVDdMo6tES7+R/g6n9NmdHCy
rRkdtwNkfZf3VzgmIs0GYmtxYNNVzJbb4+cWdmFJtRMgK0UuShFSLcngvtBaX/5u
5qEigIHL5164RiB6hYr71Xzh9oNnkqU3oViCxvyQLk3WPWiGZwIDAQABo4GAMH4w
DAYDVR0TAQH/BAIwADAdBgNVHQ4EFgQUHkOOFG/DR4VFvieJbPZbmNcL3/0wHwYD
VR0jBBgwFoAUywyDKV44otaf93b7s7ZIhE74TfMwHQYDVR0lBBYwFAYIKwYBBQUH
AwEGCCsGAQUFBwMCMA8GA1UdEQQIMAaHBH8AAAEwDQYJKoZIhvcNAQEFBQADgYEA
dfeInMb+RBfVNBbKgFjBjHCV1tk500QBNqntc4B+Yu46Wq3uiEIeco4hthIwoh4r
ah/sSMGcKIziejrff/4rKxiBMrb5rubeOmyQn9oPnsfU5eAsq4ZOxO5jj+C2MaBS
tbPPJBf3FHh6VulD9IwsuE9b/yGojzw4MlJv46ltbiM=
-----END CERTIFICATE-----
-----BEGIN RSA PRIVATE KEY-----
MIICWwIBAAKBgQDIqOdZEwggm1WDM7IbWClfChO19nFeaeV2xVDdMo6tES7+R/g6
n9NmdHCyrRkdtwNkfZf3VzgmIs0GYmtxYNNVzJbb4+cWdmFJtRMgK0UuShFSLcng
vtBaX/5u5qEigIHL5164RiB6hYr71Xzh9oNnkqU3oViCxvyQLk3WPWiGZwIDAQAB
AoGAf5i4FDI/9swP4nBbD3xOQnsb8ZeWm5znJ1FtjFr70x2cLmIBfPXo7buZdmUQ
FY8s/xfGLKgvskBq82ZeQCh7+XDOteAv5ixLoez0q91l6zP4pqoCRzpYzt8EDjs0
V7cs0rUxRZXksEuUxkKqUR+b1KUDVwrZyLUgMoJaSOyb2cECQQDpx0iyFeKvGXAC
1jiCb9GQBWHh/W2Opi2+4gRvNRpcCnZ+JqELeXS/l7LOAO+pezwta0kFnQYL7QUG
6mhUrdIRAkEA27u3hK/CDBhHO7Atinn5+U6r4m3ztNoAc1cvBRYix/Z33EOJTuj7
6xicUYC29fTRWOp90rsiNyE8x3SolK1Y9wJAMCCqwp7m0A14ldzsPU4v4mp5QEEg
MOHdQRLevtY72v78bfQd63LRqi/cy7Q9orKQLPmNSu6MtB/TjRzs5aHzQQJAUl19
HxmazVnUacVSbNPoJdGdkJTSg3osLRADKg7wHrB+oWwXbiLbO3bQMaTj8DJCvue3
HmTTIIMu+zz5bDHGZQJANhxaCoMFJkeKG0N7580hFrxzTzRXeQyeDbP3TzLRJygX
d+YkP+lFcuOlvWBy/tv/i9BTqsC0y+2V76FSoH9JPQ==
-----END RSA PRIVATE KEY-----
