Certificate:
    Data:
        Version: 1 (0x0)
        Serial Number: 236 (0xec)
        Signature Algorithm: ecdsa-with-SHA1
        Issuer: CN=secp256k1 ecdsa Test intermediate CA
        Validity
            Not Before: Dec 10 01:51:16 2011 GMT
            Not After : Dec  9 01:51:16 2012 GMT
        Subject: C=US, ST=California, L=Mountain View, O=Test CA, CN=127.0.0.1
        Subject Public Key Info:
            Public Key Algorithm: rsaEncryption
            RSA Public Key: (768 bit)
                Modulus (768 bit):
                    00:cb:5e:34:c8:77:3c:55:25:ee:1c:68:96:0c:2c:
                    48:2b:ed:83:ca:91:12:37:ea:71:ff:bc:c8:de:16:
                    03:0c:cf:b8:40:ff:3c:43:1f:10:ab:bf:d8:e4:8f:
                    c1:82:cf:66:7d:c0:aa:c6:e6:3d:74:65:2d:df:f3:
                    f7:e1:f0:c0:4a:f8:eb:b8:5d:63:ff:78:67:b7:c6:
                    1b:24:33:6d:0f:9c:39:86:72:41:03:26:8f:e0:55:
                    1d:1c:72:a5:38:15:8f
                Exponent: 65537 (0x10001)
        X509v3 extensions:
            X509v3 Subject Alternative Name: 
                IP Address:127.0.0.1
    Signature Algorithm: ecdsa-with-SHA1
        30:44:02:20:72:f6:48:3b:5d:88:f4:fc:50:c8:74:21:a6:f2:
        c4:f7:d0:40:69:a1:48:93:98:36:fe:36:16:ec:95:a6:28:12:
        02:20:48:e4:7e:32:a0:4b:c0:4d:08:5f:c8:63:f9:67:7f:2d:
        dc:78:77:78:ec:0e:a2:ee:78:60:d9:07:7d:b3:0a:d3
-----BEGIN CERTIFICATE-----
MIIBrTCCAVUCAgDsMAkGByqGSM49BAEwLzEtMCsGA1UEAwwkc2VjcDI1NmsxIGVj
ZHNhIFRlc3QgaW50ZXJtZWRpYXRlIENBMB4XDTExMTIxMDAxNTExNloXDTEyMTIw
OTAxNTExNlowYDELMAkGA1UEBhMCVVMxEzARBgNVBAgMCkNhbGlmb3JuaWExFjAU
BgNVBAcMDU1vdW50YWluIFZpZXcxEDAOBgNVBAoMB1Rlc3QgQ0ExEjAQBgNVBAMM
CTEyNy4wLjAuMTB8MA0GCSqGSIb3DQEBAQUAA2sAMGgCYQDLXjTIdzxVJe4caJYM
LEgr7YPKkRI36nH/vMjeFgMMz7hA/zxDHxCrv9jkj8GCz2Z9wKrG5j10ZS3f8/fh
8MBK+Ou4XWP/eGe3xhskM20PnDmGckEDJo/gVR0ccqU4FY8CAwEAAaMTMBEwDwYD
VR0RBAgwBocEfwAAATAJBgcqhkjOPQQBA0cAMEQCIHL2SDtdiPT8UMh0IabyxPfQ
QGmhSJOYNv42FuyVpigSAiBI5H4yoEvATQhfyGP5Z38t3Hh3eOwOou54YNkHfbMK
0w==
-----END CERTIFICATE-----
