Certificate:
    Data:
        Version: 3 (0x2)
        Serial Number:
            1b:c7:82:f0:12:af:36:75:64:2c:3a:d7:9d:ee:43:03
        Signature Algorithm: sha1WithRSAEncryption
        Issuer: C=US, O=VeriSign, Inc., OU=VeriSign Trust Network, OU=Terms of use at https://www.verisign.com/rpa (c)06, CN=VeriSign Class 3 Extended Validation SSL CA
        Validity
            Not Before: Jun  7 00:00:00 2012 GMT
            Not After : Jun  8 23:59:59 2014 GMT
        Subject: 1.3.6.1.4.1.311.60.2.1.3=SE/2.5.4.15=Government Entity/serialNumber=202100-5984, C=SE, ST=Stockholm, L=Stockholm, O=Myndigheten for samhallsskydd och beredskap (MSB), OU=CERT-SE, OU=Terms of use at www.verisign.se/rpa (c)05, OU=Authenticated by VeriSign, OU=Member, VeriSign Trust Network, CN=www.cert.se
        Subject Public Key Info:
            Public Key Algorithm: rsaEncryption
            RSA Public Key: (2048 bit)
                Modulus (2048 bit):
                    00:a9:6c:8a:77:dd:97:76:07:66:dc:7b:d0:b8:b3:
                    58:be:fb:cb:e0:d9:f7:99:ac:25:a8:ab:0c:92:31:
                    01:68:ae:80:21:41:a4:96:0b:1b:ac:bd:b3:06:40:
                    85:1c:e4:7e:42:0e:7a:1d:fc:a5:d6:c4:ec:69:94:
                    9d:b7:b6:b9:2c:0b:d3:bd:18:c8:7b:9d:cb:61:7b:
                    8d:7c:41:3c:23:d0:b9:0a:de:c4:b2:9f:ad:fb:72:
                    82:b8:57:23:66:a4:8d:30:f3:21:eb:d6:8f:20:52:
                    e6:f7:a3:13:81:10:05:92:c2:ad:3a:4f:84:2e:da:
                    17:f5:9c:fb:8c:10:d8:16:cb:09:98:e5:a4:79:f1:
                    8f:45:85:8c:8c:53:1c:72:54:77:c0:67:f1:e0:0f:
                    88:d4:5f:99:e0:d7:ca:b5:d5:cd:25:52:c7:54:ca:
                    cc:2f:14:ee:ef:6e:df:53:04:8e:0e:3a:e6:a3:f1:
                    2b:4e:c2:4e:7f:ff:39:98:35:7f:41:58:44:da:10:
                    ab:ce:b2:61:03:f8:d8:f7:21:a0:67:d9:a9:e7:36:
                    9a:61:d0:aa:e0:4d:6b:9d:81:98:b0:09:d5:44:8f:
                    7a:1e:29:b0:e6:68:f5:88:11:91:94:3d:48:bc:8d:
                    e3:fe:85:98:5a:f3:bc:f2:35:00:f7:f8:76:e3:33:
                    71:63
                Exponent: 65537 (0x10001)
        X509v3 extensions:
            X509v3 Basic Constraints: 
                CA:FALSE
            X509v3 Key Usage: 
                Digital Signature, Key Encipherment
            X509v3 CRL Distribution Points: 
                URI:http://EVSecure-crl.verisign.com/EVSecure2006.crl

            X509v3 Certificate Policies: 
                Policy: 2.16.840.1.113733.1.7.23.6
                  CPS: https://www.verisign.com/cps

            X509v3 Extended Key Usage: 
                TLS Web Server Authentication, TLS Web Client Authentication
            X509v3 Authority Key Identifier: 
                keyid:FC:8A:50:BA:9E:B9:25:5A:7B:55:85:4F:95:00:63:8F:E9:58:6B:43

            Authority Information Access: 
                OCSP - URI:http://ocsp.verisign.com
                CA Issuers - URI:http://EVSecure-aia.verisign.com/EVSecure2006.cer

            1.3.6.1.5.5.7.1.12: 
                0`.^.\0Z0X0V..image/gif0!0.0...+......Kk.(.....R8.).K..!..0&.$http://logo.verisign.com/vslogo1.gif
            X509v3 Subject Alternative Name: 
                DNS:cert.se, DNS:www.cert.se
    Signature Algorithm: sha1WithRSAEncryption
        8c:91:f0:ef:85:4b:6a:3f:0c:48:45:bd:14:70:af:c3:ce:0f:
        3d:b2:c1:10:ca:28:92:20:ef:5d:96:78:5a:15:db:8d:b0:93:
        77:80:bd:f5:d3:0a:fb:37:f1:e6:be:b7:a7:e7:c5:aa:be:7c:
        7e:3e:9d:40:3a:8d:9d:a5:e5:5b:2f:8e:60:5a:7b:59:50:a4:
        b1:20:e9:df:45:54:c5:46:42:32:dd:12:95:dd:a1:4e:6e:d9:
        93:9d:2e:20:fd:51:40:d5:52:0a:7a:31:95:b6:e1:d2:1c:b9:
        a5:f4:03:15:72:a4:ef:6a:00:7b:52:22:0f:55:14:1a:23:6f:
        dc:38:34:81:07:fe:d9:bd:cb:55:00:85:1d:25:54:62:c7:7c:
        b8:d4:2b:ac:3e:1a:d9:0b:6f:30:e8:e6:7c:c1:fe:36:26:38:
        d9:e4:a7:7a:cc:ec:9b:67:c8:f6:94:ed:3e:11:e8:11:3b:63:
        84:34:8d:a1:b1:a8:af:e0:29:4b:85:3d:42:8f:b3:13:e5:18:
        b4:c1:36:89:18:31:31:83:a0:3f:a5:14:19:92:b1:d1:d5:9f:
        3a:38:57:aa:28:4f:c5:44:71:c2:fc:1c:8e:1b:ba:de:4f:f3:
        46:13:5b:10:8b:56:ab:07:4d:ff:bc:eb:de:ba:97:fd:9d:bb:
        60:4c:e0:cb
-----BEGIN CERTIFICATE-----
MIIGljCCBX6gAwIBAgIQG8eC8BKvNnVkLDrXne5DAzANBgkqhkiG9w0BAQUFADCB
ujELMAkGA1UEBhMCVVMxFzAVBgNVBAoTDlZlcmlTaWduLCBJbmMuMR8wHQYDVQQL
ExZWZXJpU2lnbiBUcnVzdCBOZXR3b3JrMTswOQYDVQQLEzJUZXJtcyBvZiB1c2Ug
YXQgaHR0cHM6Ly93d3cudmVyaXNpZ24uY29tL3JwYSAoYykwNjE0MDIGA1UEAxMr
VmVyaVNpZ24gQ2xhc3MgMyBFeHRlbmRlZCBWYWxpZGF0aW9uIFNTTCBDQTAeFw0x
MjA2MDcwMDAwMDBaFw0xNDA2MDgyMzU5NTlaMIIBYTETMBEGCysGAQQBgjc8AgED
EwJTRTEaMBgGA1UEDxMRR292ZXJubWVudCBFbnRpdHkxFDASBgNVBAUTCzIwMjEw
MC01OTg0MQswCQYDVQQGEwJTRTESMBAGA1UECAwJU3RvY2tob2xtMRIwEAYDVQQH
FAlTdG9ja2hvbG0xOjA4BgNVBAoMMU15bmRpZ2hldGVuIGZvciBzYW1oYWxsc3Nr
eWRkIG9jaCBiZXJlZHNrYXAgKE1TQikxEDAOBgNVBAsUB0NFUlQtU0UxMjAwBgNV
BAsUKVRlcm1zIG9mIHVzZSBhdCB3d3cudmVyaXNpZ24uc2UvcnBhIChjKTA1MSIw
IAYDVQQLExlBdXRoZW50aWNhdGVkIGJ5IFZlcmlTaWduMScwJQYDVQQLEx5NZW1i
ZXIsIFZlcmlTaWduIFRydXN0IE5ldHdvcmsxFDASBgNVBAMUC3d3dy5jZXJ0LnNl
MIIBIjANBgkqhkiG9w0BAQEFAAOCAQ8AMIIBCgKCAQEAqWyKd92Xdgdm3HvQuLNY
vvvL4Nn3mawlqKsMkjEBaK6AIUGklgsbrL2zBkCFHOR+Qg56Hfyl1sTsaZSdt7a5
LAvTvRjIe53LYXuNfEE8I9C5Ct7Esp+t+3KCuFcjZqSNMPMh69aPIFLm96MTgRAF
ksKtOk+ELtoX9Zz7jBDYFssJmOWkefGPRYWMjFMcclR3wGfx4A+I1F+Z4NfKtdXN
JVLHVMrMLxTu727fUwSODjrmo/ErTsJOf/85mDV/QVhE2hCrzrJhA/jY9yGgZ9mp
5zaaYdCq4E1rnYGYsAnVRI96Himw5mj1iBGRlD1IvI3j/oWYWvO88jUA9/h24zNx
YwIDAQABo4IB7DCCAegwCQYDVR0TBAIwADALBgNVHQ8EBAMCBaAwQgYDVR0fBDsw
OTA3oDWgM4YxaHR0cDovL0VWU2VjdXJlLWNybC52ZXJpc2lnbi5jb20vRVZTZWN1
cmUyMDA2LmNybDBEBgNVHSAEPTA7MDkGC2CGSAGG+EUBBxcGMCowKAYIKwYBBQUH
AgEWHGh0dHBzOi8vd3d3LnZlcmlzaWduLmNvbS9jcHMwHQYDVR0lBBYwFAYIKwYB
BQUHAwEGCCsGAQUFBwMCMB8GA1UdIwQYMBaAFPyKULqeuSVae1WFT5UAY4/pWGtD
MHMGCCsGAQUFBwEBBGcwZTAkBggrBgEFBQcwAYYYaHR0cDovL29jc3AudmVyaXNp
Z24uY29tMD0GCCsGAQUFBzAChjFodHRwOi8vRVZTZWN1cmUtYWlhLnZlcmlzaWdu
LmNvbS9FVlNlY3VyZTIwMDYuY2VyMG4GCCsGAQUFBwEMBGIwYKFeoFwwWjBYMFYW
CWltYWdlL2dpZjAhMB8wBwYFKw4DAhoEFEtruSiWBgy70FI4mymsSweLIQUYMCYW
JGh0dHA6Ly9sb2dvLnZlcmlzaWduLmNvbS92c2xvZ28xLmdpZjAfBgNVHREEGDAW
ggdjZXJ0LnNlggt3d3cuY2VydC5zZTANBgkqhkiG9w0BAQUFAAOCAQEAjJHw74VL
aj8MSEW9FHCvw84PPbLBEMookiDvXZZ4WhXbjbCTd4C99dMK+zfx5r63p+fFqr58
fj6dQDqNnaXlWy+OYFp7WVCksSDp30VUxUZCMt0Sld2hTm7Zk50uIP1RQNVSCnox
lbbh0hy5pfQDFXKk72oAe1IiD1UUGiNv3Dg0gQf+2b3LVQCFHSVUYsd8uNQrrD4a
2QtvMOjmfMH+NiY42eSneszsm2fI9pTtPhHoETtjhDSNobGor+ApS4U9Qo+zE+UY
tME2iRgxMYOgP6UUGZKx0dWfOjhXqihPxURxwvwcjhu63k/zRhNbEItWqwdN/7zr
3rqX/Z27YEzgyw==
-----END CERTIFICATE-----
Certificate:
    Data:
        Version: 3 (0x2)
        Serial Number:
            5b:77:59:c6:17:84:e1:5e:c7:27:c0:32:95:29:28:6b
        Signature Algorithm: sha1WithRSAEncryption
        Issuer: C=US, O=VeriSign, Inc., OU=VeriSign Trust Network, OU=(c) 2006 VeriSign, Inc. - For authorized use only, CN=VeriSign Class 3 Public Primary Certification Authority - G5
        Validity
            Not Before: Nov  8 00:00:00 2006 GMT
            Not After : Nov  7 23:59:59 2016 GMT
        Subject: C=US, O=VeriSign, Inc., OU=VeriSign Trust Network, OU=Terms of use at https://www.verisign.com/rpa (c)06, CN=VeriSign Class 3 Extended Validation SSL CA
        Subject Public Key Info:
            Public Key Algorithm: rsaEncryption
            RSA Public Key: (2048 bit)
                Modulus (2048 bit):
                    00:98:db:a0:55:eb:9c:fd:17:79:e3:9a:6e:14:1d:
                    b1:5b:98:23:87:16:6e:87:76:9c:b5:38:3b:b5:a0:
                    7a:b4:07:63:09:19:e6:2a:88:48:a9:e7:9d:b6:30:
                    5a:08:97:0c:ec:aa:e4:16:69:72:62:23:9a:fb:7a:
                    54:28:98:c5:0c:2d:b7:d7:22:b6:c8:f9:38:17:c7:
                    dd:da:31:46:9a:94:14:8e:9e:ee:78:a0:b7:22:d4:
                    49:54:97:4d:e5:74:5b:92:bc:ec:6c:2c:df:e7:c1:
                    b6:1b:1a:55:6b:66:08:03:7f:45:af:9a:33:f1:10:
                    c0:6c:99:4a:92:24:31:08:6d:dd:02:3e:61:76:78:
                    78:b6:ed:7e:37:ae:6c:f3:89:e1:b7:e1:dc:15:cc:
                    b7:56:9f:80:a0:b1:05:7f:4e:37:15:ff:b7:2f:1e:
                    8f:06:38:3f:50:b7:69:28:a3:b5:66:5f:36:1a:52:
                    48:43:66:52:df:a2:92:4f:d3:18:60:be:e3:ea:5e:
                    19:71:05:bf:9e:1c:6c:68:72:25:6f:b3:7b:73:c9:
                    6d:bd:12:ff:9b:41:32:5e:f4:e8:7e:c5:0b:a3:4c:
                    64:d1:4e:bc:26:08:65:fb:19:97:58:78:e1:33:bf:
                    ed:68:3e:b1:27:45:6f:c0:e2:ec:97:69:f7:5c:d3:
                    f7:51
                Exponent: 65537 (0x10001)
        X509v3 extensions:
            X509v3 Subject Key Identifier: 
                FC:8A:50:BA:9E:B9:25:5A:7B:55:85:4F:95:00:63:8F:E9:58:6B:43
            X509v3 Basic Constraints: critical
                CA:TRUE, pathlen:0
            X509v3 Certificate Policies: 
                Policy: X509v3 Any Policy
                  CPS: https://www.verisign.com/cps

            X509v3 CRL Distribution Points: 
                URI:http://EVSecure-crl.verisign.com/pca3-g5.crl

            X509v3 Key Usage: critical
                Certificate Sign, CRL Sign
            Netscape Cert Type: 
                SSL CA, S/MIME CA
            1.3.6.1.5.5.7.1.12: 
                0_.].[0Y0W0U..image/gif0!0.0...+..............k...j.H.,{..0%.#http://logo.verisign.com/vslogo.gif
            X509v3 Subject Alternative Name: 
                DirName:/CN=Class3CA2048-1-47
            Authority Information Access: 
                OCSP - URI:http://EVSecure-ocsp.verisign.com

            X509v3 Authority Key Identifier: 
                keyid:7F:D3:65:A7:C2:DD:EC:BB:F0:30:09:F3:43:39:FA:02:AF:33:31:33

    Signature Algorithm: sha1WithRSAEncryption
        96:a2:fa:7f:e6:3d:ed:d4:2b:ce:b7:15:3f:c0:72:03:5f:8b:
        ba:16:90:25:f7:c2:83:d8:c7:75:34:63:68:12:53:0c:53:89:
        7b:c9:56:09:a7:c3:36:44:4e:0e:d0:62:62:b3:86:fa:e8:a1:
        9b:34:67:8d:53:22:17:3e:fd:ac:ee:67:2e:43:e2:5d:7f:33:
        84:f2:a2:70:c0:6e:82:97:c0:34:fd:25:c6:23:7f:ed:e6:b0:
        c5:57:43:84:b2:de:2d:f1:d0:f6:48:1f:14:71:57:b2:ac:31:
        e1:97:24:23:c9:13:5d:74:e5:46:ef:09:7c:9e:e1:99:31:0a:
        08:79:1b:8f:71:9f:17:66:c8:38:cf:ee:8c:97:b6:06:b9:73:
        46:e4:d3:94:c1:e5:60:b5:25:75:2d:d9:69:31:ec:cd:96:c3:
        a3:76:fd:e8:74:44:ac:12:b9:4d:bf:51:e8:b9:d4:44:4e:27:
        cb:ae:20:d1:7e:2a:7c:b6:63:47:9e:76:ba:97:d0:16:e7:0b:
        6c:6d:f7:43:6f:33:0b:29:30:77:fa:9d:f9:f5:4e:b8:76:b3:
        cd:18:b4:f9:20:ef:3d:db:e6:ca:ad:9b:d0:4e:d2:87:a9:0d:
        a6:44:73:50:dd:70:5b:ed:ad:7e:4a:bc:22:d5:a8:26:e4:c2:
        85:20:0d:d9
-----BEGIN CERTIFICATE-----
MIIF5DCCBMygAwIBAgIQW3dZxheE4V7HJ8AylSkoazANBgkqhkiG9w0BAQUFADCB
yjELMAkGA1UEBhMCVVMxFzAVBgNVBAoTDlZlcmlTaWduLCBJbmMuMR8wHQYDVQQL
ExZWZXJpU2lnbiBUcnVzdCBOZXR3b3JrMTowOAYDVQQLEzEoYykgMjAwNiBWZXJp
U2lnbiwgSW5jLiAtIEZvciBhdXRob3JpemVkIHVzZSBvbmx5MUUwQwYDVQQDEzxW
ZXJpU2lnbiBDbGFzcyAzIFB1YmxpYyBQcmltYXJ5IENlcnRpZmljYXRpb24gQXV0
aG9yaXR5IC0gRzUwHhcNMDYxMTA4MDAwMDAwWhcNMTYxMTA3MjM1OTU5WjCBujEL
MAkGA1UEBhMCVVMxFzAVBgNVBAoTDlZlcmlTaWduLCBJbmMuMR8wHQYDVQQLExZW
ZXJpU2lnbiBUcnVzdCBOZXR3b3JrMTswOQYDVQQLEzJUZXJtcyBvZiB1c2UgYXQg
aHR0cHM6Ly93d3cudmVyaXNpZ24uY29tL3JwYSAoYykwNjE0MDIGA1UEAxMrVmVy
aVNpZ24gQ2xhc3MgMyBFeHRlbmRlZCBWYWxpZGF0aW9uIFNTTCBDQTCCASIwDQYJ
KoZIhvcNAQEBBQADggEPADCCAQoCggEBAJjboFXrnP0XeeOabhQdsVuYI4cWbod2
nLU4O7WgerQHYwkZ5iqISKnnnbYwWgiXDOyq5BZpcmIjmvt6VCiYxQwtt9citsj5
OBfH3doxRpqUFI6e7nigtyLUSVSXTeV0W5K87Gws3+fBthsaVWtmCAN/Ra+aM/EQ
wGyZSpIkMQht3QI+YXZ4eLbtfjeubPOJ4bfh3BXMt1afgKCxBX9ONxX/ty8ejwY4
P1C3aSijtWZfNhpSSENmUt+ikk/TGGC+4+peGXEFv54cbGhyJW+ze3PJbb0S/5tB
Ml706H7FC6NMZNFOvCYIZfsZl1h44TO/7Wg+sSdFb8Di7Jdp91zT91ECAwEAAaOC
AdIwggHOMB0GA1UdDgQWBBT8ilC6nrklWntVhU+VAGOP6VhrQzASBgNVHRMBAf8E
CDAGAQH/AgEAMD0GA1UdIAQ2MDQwMgYEVR0gADAqMCgGCCsGAQUFBwIBFhxodHRw
czovL3d3dy52ZXJpc2lnbi5jb20vY3BzMD0GA1UdHwQ2MDQwMqAwoC6GLGh0dHA6
Ly9FVlNlY3VyZS1jcmwudmVyaXNpZ24uY29tL3BjYTMtZzUuY3JsMA4GA1UdDwEB
/wQEAwIBBjARBglghkgBhvhCAQEEBAMCAQYwbQYIKwYBBQUHAQwEYTBfoV2gWzBZ
MFcwVRYJaW1hZ2UvZ2lmMCEwHzAHBgUrDgMCGgQUj+XTGoasjY5rw8+AatRIGCx7
GS4wJRYjaHR0cDovL2xvZ28udmVyaXNpZ24uY29tL3ZzbG9nby5naWYwKQYDVR0R
BCIwIKQeMBwxGjAYBgNVBAMTEUNsYXNzM0NBMjA0OC0xLTQ3MD0GCCsGAQUFBwEB
BDEwLzAtBggrBgEFBQcwAYYhaHR0cDovL0VWU2VjdXJlLW9jc3AudmVyaXNpZ24u
Y29tMB8GA1UdIwQYMBaAFH/TZafC3ey78DAJ80M5+gKvMzEzMA0GCSqGSIb3DQEB
BQUAA4IBAQCWovp/5j3t1CvOtxU/wHIDX4u6FpAl98KD2Md1NGNoElMMU4l7yVYJ
p8M2RE4O0GJis4b66KGbNGeNUyIXPv2s7mcuQ+JdfzOE8qJwwG6Cl8A0/SXGI3/t
5rDFV0OEst4t8dD2SB8UcVeyrDHhlyQjyRNddOVG7wl8nuGZMQoIeRuPcZ8XZsg4
z+6Ml7YGuXNG5NOUweVgtSV1LdlpMezNlsOjdv3odESsErlNv1HoudRETifLriDR
fip8tmNHnna6l9AW5wtsbfdDbzMLKTB3+p359U64drPNGLT5IO892+bKrZvQTtKH
qQ2mRHNQ3XBb7a1+Srwi1agm5MKFIA3Z
-----END CERTIFICATE-----
Certificate:
    Data:
        Version: 3 (0x2)
        Serial Number:
            25:0c:e8:e0:30:61:2e:9f:2b:89:f7:05:4d:7c:f8:fd
        Signature Algorithm: sha1WithRSAEncryption
        Issuer: C=US, O=VeriSign, Inc., OU=Class 3 Public Primary Certification Authority
        Validity
            Not Before: Nov  8 00:00:00 2006 GMT
            Not After : Nov  7 23:59:59 2021 GMT
        Subject: C=US, O=VeriSign, Inc., OU=VeriSign Trust Network, OU=(c) 2006 VeriSign, Inc. - For authorized use only, CN=VeriSign Class 3 Public Primary Certification Authority - G5
        Subject Public Key Info:
            Public Key Algorithm: rsaEncryption
            RSA Public Key: (2048 bit)
                Modulus (2048 bit):
                    00:af:24:08:08:29:7a:35:9e:60:0c:aa:e7:4b:3b:
                    4e:dc:7c:bc:3c:45:1c:bb:2b:e0:fe:29:02:f9:57:
                    08:a3:64:85:15:27:f5:f1:ad:c8:31:89:5d:22:e8:
                    2a:aa:a6:42:b3:8f:f8:b9:55:b7:b1:b7:4b:b3:fe:
                    8f:7e:07:57:ec:ef:43:db:66:62:15:61:cf:60:0d:
                    a4:d8:de:f8:e0:c3:62:08:3d:54:13:eb:49:ca:59:
                    54:85:26:e5:2b:8f:1b:9f:eb:f5:a1:91:c2:33:49:
                    d8:43:63:6a:52:4b:d2:8f:e8:70:51:4d:d1:89:69:
                    7b:c7:70:f6:b3:dc:12:74:db:7b:5d:4b:56:d3:96:
                    bf:15:77:a1:b0:f4:a2:25:f2:af:1c:92:67:18:e5:
                    f4:06:04:ef:90:b9:e4:00:e4:dd:3a:b5:19:ff:02:
                    ba:f4:3c:ee:e0:8b:eb:37:8b:ec:f4:d7:ac:f2:f6:
                    f0:3d:af:dd:75:91:33:19:1d:1c:40:cb:74:24:19:
                    21:93:d9:14:fe:ac:2a:52:c7:8f:d5:04:49:e4:8d:
                    63:47:88:3c:69:83:cb:fe:47:bd:2b:7e:4f:c5:95:
                    ae:0e:9d:d4:d1:43:c0:67:73:e3:14:08:7e:e5:3f:
                    9f:73:b8:33:0a:cf:5d:3f:34:87:96:8a:ee:53:e8:
                    25:15
                Exponent: 65537 (0x10001)
        X509v3 extensions:
            X509v3 Basic Constraints: critical
                CA:TRUE
            X509v3 CRL Distribution Points: 
                URI:http://crl.verisign.com/pca3.crl

            X509v3 Key Usage: critical
                Certificate Sign, CRL Sign
            X509v3 Certificate Policies: 
                Policy: X509v3 Any Policy
                  CPS: https://www.verisign.com/cps

            X509v3 Subject Key Identifier: 
                7F:D3:65:A7:C2:DD:EC:BB:F0:30:09:F3:43:39:FA:02:AF:33:31:33
            1.3.6.1.5.5.7.1.12: 
                0_.].[0Y0W0U..image/gif0!0.0...+..............k...j.H.,{..0%.#http://logo.verisign.com/vslogo.gif
            Authority Information Access: 
                OCSP - URI:http://ocsp.verisign.com

            X509v3 Extended Key Usage: 
                TLS Web Server Authentication, TLS Web Client Authentication, Code Signing, Netscape Server Gated Crypto, 2.16.840.1.113733.1.8.1
    Signature Algorithm: sha1WithRSAEncryption
        13:02:dd:f8:e8:86:00:f2:5a:f8:f8:20:0c:59:88:62:07:ce:
        ce:f7:4e:f9:bb:59:a1:98:e5:e1:38:dd:4e:bc:66:18:d3:ad:
        eb:18:f2:0d:c9:6d:3e:4a:94:20:c3:3c:ba:bd:65:54:c6:af:
        44:b3:10:ad:2c:6b:3e:ab:d7:07:b6:b8:81:63:c5:f9:5e:2e:
        e5:2a:67:ce:cd:33:0c:2a:d7:89:56:03:23:1f:b3:be:e8:3a:
        08:59:b4:ec:45:35:f7:8a:5b:ff:66:cf:50:af:c6:6d:57:8d:
        19:78:b7:b9:a2:d1:57:ea:1f:9a:4b:af:ba:c9:8e:12:7e:c6:
        bd:ff
-----BEGIN CERTIFICATE-----
MIIE0DCCBDmgAwIBAgIQJQzo4DBhLp8rifcFTXz4/TANBgkqhkiG9w0BAQUFADBf
MQswCQYDVQQGEwJVUzEXMBUGA1UEChMOVmVyaVNpZ24sIEluYy4xNzA1BgNVBAsT
LkNsYXNzIDMgUHVibGljIFByaW1hcnkgQ2VydGlmaWNhdGlvbiBBdXRob3JpdHkw
HhcNMDYxMTA4MDAwMDAwWhcNMjExMTA3MjM1OTU5WjCByjELMAkGA1UEBhMCVVMx
FzAVBgNVBAoTDlZlcmlTaWduLCBJbmMuMR8wHQYDVQQLExZWZXJpU2lnbiBUcnVz
dCBOZXR3b3JrMTowOAYDVQQLEzEoYykgMjAwNiBWZXJpU2lnbiwgSW5jLiAtIEZv
ciBhdXRob3JpemVkIHVzZSBvbmx5MUUwQwYDVQQDEzxWZXJpU2lnbiBDbGFzcyAz
IFB1YmxpYyBQcmltYXJ5IENlcnRpZmljYXRpb24gQXV0aG9yaXR5IC0gRzUwggEi
MA0GCSqGSIb3DQEBAQUAA4IBDwAwggEKAoIBAQCvJAgIKXo1nmAMqudLO07cfLw8
RRy7K+D+KQL5VwijZIUVJ/XxrcgxiV0i6CqqpkKzj/i5Vbext0uz/o9+B1fs70Pb
ZmIVYc9gDaTY3vjgw2IIPVQT60nKWVSFJuUrjxuf6/WhkcIzSdhDY2pSS9KP6HBR
TdGJaXvHcPaz3BJ023tdS1bTlr8Vd6Gw9KIl8q8ckmcY5fQGBO+QueQA5N06tRn/
Arr0PO7gi+s3i+z016zy9vA9r911kTMZHRxAy3QkGSGT2RT+rCpSx4/VBEnkjWNH
iDxpg8v+R70rfk/Fla4OndTRQ8Bnc+MUCH7lP59zuDMKz10/NIeWiu5T6CUVAgMB
AAGjggGbMIIBlzAPBgNVHRMBAf8EBTADAQH/MDEGA1UdHwQqMCgwJqAkoCKGIGh0
dHA6Ly9jcmwudmVyaXNpZ24uY29tL3BjYTMuY3JsMA4GA1UdDwEB/wQEAwIBBjA9
BgNVHSAENjA0MDIGBFUdIAAwKjAoBggrBgEFBQcCARYcaHR0cHM6Ly93d3cudmVy
aXNpZ24uY29tL2NwczAdBgNVHQ4EFgQUf9Nlp8Ld7LvwMAnzQzn6Aq8zMTMwbQYI
KwYBBQUHAQwEYTBfoV2gWzBZMFcwVRYJaW1hZ2UvZ2lmMCEwHzAHBgUrDgMCGgQU
j+XTGoasjY5rw8+AatRIGCx7GS4wJRYjaHR0cDovL2xvZ28udmVyaXNpZ24uY29t
L3ZzbG9nby5naWYwNAYIKwYBBQUHAQEEKDAmMCQGCCsGAQUFBzABhhhodHRwOi8v
b2NzcC52ZXJpc2lnbi5jb20wPgYDVR0lBDcwNQYIKwYBBQUHAwEGCCsGAQUFBwMC
BggrBgEFBQcDAwYJYIZIAYb4QgQBBgpghkgBhvhFAQgBMA0GCSqGSIb3DQEBBQUA
A4GBABMC3fjohgDyWvj4IAxZiGIHzs73Tvm7WaGY5eE43U68ZhjTresY8g3JbT5K
lCDDPLq9ZVTGr0SzEK0saz6r1we2uIFjxfleLuUqZ87NMwwq14lWAyMfs77oOghZ
tOxFNfeKW/9mz1Cvxm1XjRl4t7mi0VfqH5pLr7rJjhJ+xr3/
-----END CERTIFICATE-----
