Certificate:
    Data:
        Version: 3 (0x2)
        Serial Number: 4097 (0x1001)
        Signature Algorithm: sha256WithRSAEncryption
        Issuer: CN=Client Cert 1 CA
        Validity
            Not Before: Dec  6 08:03:35 2019 GMT
            Not After : Dec  3 08:03:35 2029 GMT
        Subject: CN=Client Cert 1
        Subject Public Key Info:
            Public Key Algorithm: rsaEncryption
                RSA Public-Key: (2048 bit)
                Modulus:
                    00:b4:da:6d:17:f7:67:aa:2b:2f:86:11:aa:6c:7f:
                    63:93:df:7f:b9:d4:dc:83:e0:18:15:90:43:7f:20:
                    65:b9:c9:41:a8:26:e1:e8:39:9c:a3:20:8a:21:77:
                    36:38:42:fa:45:ae:24:bc:fe:4e:8f:5a:1a:76:64:
                    61:b5:33:78:85:05:86:d3:b9:bf:90:03:9b:9a:ae:
                    a5:1e:16:10:7c:bd:5a:ae:2f:44:b8:aa:59:c4:da:
                    44:fa:1a:57:ca:23:eb:50:a7:e3:07:85:13:5a:40:
                    92:96:56:38:df:76:b6:d8:a0:b9:7d:d0:59:ed:f7:
                    65:21:3f:f2:1e:3c:0a:46:04:da:17:2a:e2:76:46:
                    d9:87:ce:93:40:ab:4c:7c:f3:57:77:9d:d7:5e:fd:
                    0b:33:e6:00:5f:65:2b:9e:71:14:96:ad:87:aa:27:
                    9c:d2:8e:b2:45:2b:39:50:c7:23:8e:e0:a2:5e:65:
                    0f:d9:bd:b9:0d:2d:bf:b2:fb:e3:c3:95:c5:32:02:
                    f1:09:d8:28:75:1c:66:34:3f:dc:57:50:94:e6:6a:
                    c8:cf:86:4f:47:ee:ff:4c:bb:da:b6:ce:eb:3a:74:
                    92:6d:fa:a9:4b:1a:6b:10:94:0d:d4:02:c8:c5:1a:
                    0f:52:88:fb:25:b4:e5:a6:6d:cb:1e:b8:28:ea:fe:
                    41:51
                Exponent: 65537 (0x10001)
        X509v3 extensions:
            X509v3 Basic Constraints: critical
                CA:FALSE
            X509v3 Extended Key Usage: 
                TLS Web Server Authentication, TLS Web Client Authentication
    Signature Algorithm: sha256WithRSAEncryption
         c8:94:a7:30:da:75:79:13:db:70:ea:28:ab:a2:0e:a0:b8:d8:
         b4:a7:1e:5e:11:1d:59:88:a9:f7:ce:d5:aa:ab:ae:73:27:de:
         d8:fd:60:22:c3:25:de:7e:18:9b:ea:06:8f:da:c8:e3:b3:9f:
         1e:49:b2:26:4e:56:71:c9:ac:83:bc:b6:1a:51:49:f5:70:40:
         4e:20:bd:f6:ee:f8:1e:d4:78:81:1e:5f:50:ba:f5:94:6d:c0:
         18:b1:d0:f3:d3:f8:e0:e6:22:8a:c4:9e:ee:71:86:b2:87:e3:
         d6:e8:f5:7a:ab:ec:3f:12:9f:f0:1d:9a:dd:9d:12:f6:37:9f:
         be:7f:b4:1e:d3:6b:7f:a7:db:4b:ca:34:fb:6e:b3:54:4b:95:
         d8:cb:02:a7:d1:c7:04:48:44:01:0f:86:a5:d7:b3:99:ad:e9:
         5f:55:55:c9:d8:90:51:e6:2b:b9:65:67:4b:8f:f3:69:71:dc:
         63:04:df:43:18:f0:e8:31:8c:f2:00:fb:cc:13:cf:0b:6b:b6:
         61:b9:40:39:44:e6:b6:0c:95:f9:79:a3:36:a6:63:6d:1e:49:
         f2:c8:9e:be:c3:10:64:d8:2d:fe:a0:63:3e:1f:ec:aa:dd:96:
         52:12:01:7f:bf:b9:f9:12:21:9c:51:dc:d5:01:0d:5e:b2:07:
         aa:08:27:e2
-----BEGIN CERTIFICATE-----
MIIC3jCCAcagAwIBAgICEAEwDQYJKoZIhvcNAQELBQAwGzEZMBcGA1UEAwwQQ2xp
ZW50IENlcnQgMSBDQTAeFw0xOTEyMDYwODAzMzVaFw0yOTEyMDMwODAzMzVaMBgx
FjAUBgNVBAMMDUNsaWVudCBDZXJ0IDEwggEiMA0GCSqGSIb3DQEBAQUAA4IBDwAw
ggEKAoIBAQC02m0X92eqKy+GEapsf2OT33+51NyD4BgVkEN/IGW5yUGoJuHoOZyj
IIohdzY4QvpFriS8/k6PWhp2ZGG1M3iFBYbTub+QA5uarqUeFhB8vVquL0S4qlnE
2kT6GlfKI+tQp+MHhRNaQJKWVjjfdrbYoLl90Fnt92UhP/IePApGBNoXKuJ2RtmH
zpNAq0x881d3ndde/Qsz5gBfZSuecRSWrYeqJ5zSjrJFKzlQxyOO4KJeZQ/ZvbkN
Lb+y++PDlcUyAvEJ2Ch1HGY0P9xXUJTmasjPhk9H7v9Mu9q2zus6dJJt+qlLGmsQ
lA3UAsjFGg9SiPsltOWmbcseuCjq/kFRAgMBAAGjLzAtMAwGA1UdEwEB/wQCMAAw
HQYDVR0lBBYwFAYIKwYBBQUHAwEGCCsGAQUFBwMCMA0GCSqGSIb3DQEBCwUAA4IB
AQDIlKcw2nV5E9tw6iirog6guNi0px5eER1ZiKn3ztWqq65zJ97Y/WAiwyXefhib
6gaP2sjjs58eSbImTlZxyayDvLYaUUn1cEBOIL327vge1HiBHl9QuvWUbcAYsdDz
0/jg5iKKxJ7ucYayh+PW6PV6q+w/Ep/wHZrdnRL2N5++f7Qe02t/p9tLyjT7brNU
S5XYywKn0ccESEQBD4al17OZrelfVVXJ2JBR5iu5ZWdLj/NpcdxjBN9DGPDoMYzy
APvME88La7ZhuUA5ROa2DJX5eaM2pmNtHknyyJ6+wxBk2C3+oGM+H+yq3ZZSEgF/
v7n5EiGcUdzVAQ1esgeqCCfi
-----END CERTIFICATE-----
