Certificate:
    Data:
        Version: 3 (0x2)
        Serial Number: 4098 (0x1002)
        Signature Algorithm: sha256WithRSAEncryption
        Issuer: CN=Client Cert 2 CA
        Validity
            Not Before: Dec  6 08:03:35 2019 GMT
            Not After : Dec  3 08:03:35 2029 GMT
        Subject: CN=Client Cert 2
        Subject Public Key Info:
            Public Key Algorithm: rsaEncryption
                RSA Public-Key: (2048 bit)
                Modulus:
                    00:d8:08:9f:cf:d7:15:51:a8:dd:13:23:d9:6d:9a:
                    6c:55:8f:85:2e:73:36:48:61:b7:fa:32:78:bd:ed:
                    8e:94:41:34:20:21:b2:a4:1a:7f:31:a1:51:98:5f:
                    71:d6:71:83:77:72:c9:33:af:95:8c:c4:3c:e7:a6:
                    36:d0:9a:65:1f:a1:b5:44:0c:09:cb:a9:30:46:c1:
                    79:57:de:e2:be:c0:48:a6:c4:ac:69:7d:be:f2:77:
                    72:dc:5a:32:94:ed:70:59:c7:96:94:00:db:b7:a0:
                    0e:27:8a:50:68:27:5e:18:1a:58:b4:a3:48:a6:c5:
                    75:9c:87:e2:00:a4:7b:4e:2c:22:2b:43:81:7c:52:
                    9a:10:2f:a2:b1:d8:3d:e5:6c:59:5f:d0:7e:32:e6:
                    ab:3a:e6:42:4c:8b:91:8c:ab:40:ce:7b:92:e6:58:
                    36:72:eb:4a:0d:fc:98:18:35:a2:b2:00:d3:37:9c:
                    2e:b9:dc:bc:3c:50:08:65:25:2f:ee:5a:fa:2a:37:
                    fa:05:1b:bd:7b:65:53:e9:44:9f:62:9b:7f:31:0b:
                    e3:dc:bb:e1:ed:ba:36:3f:cb:2e:fa:31:44:c9:39:
                    eb:e9:4b:ef:e0:38:62:81:63:a9:9a:5b:21:7c:fc:
                    47:77:45:0d:93:2d:f1:6d:1b:a5:19:ce:44:a1:3f:
                    25:91
                Exponent: 65537 (0x10001)
        X509v3 extensions:
            X509v3 Basic Constraints: critical
                CA:FALSE
            X509v3 Extended Key Usage: 
                TLS Web Server Authentication, TLS Web Client Authentication
    Signature Algorithm: sha256WithRSAEncryption
         0b:03:41:f8:ca:7c:51:f4:8f:e9:59:b3:cb:43:d0:37:1b:a6:
         b4:6f:b3:93:01:73:88:b9:31:b9:77:0a:95:a0:4d:b0:74:6e:
         a1:74:61:a8:91:c9:2b:0e:ff:ed:1f:14:fb:ae:64:82:f3:85:
         bb:d0:cb:9c:31:42:c0:5e:63:85:8d:f7:d1:50:db:bc:1c:79:
         6e:f0:6e:3c:d1:ba:ff:74:08:8a:11:dc:e7:47:6a:8d:6d:39:
         5e:0d:88:ee:f1:b7:bb:7c:07:7a:f1:ad:c1:f6:3f:f9:a9:70:
         39:8c:fb:77:32:9c:e6:db:28:85:ba:71:89:a1:37:04:4d:2e:
         f2:1f:dd:76:1c:76:c7:b1:82:6b:fd:5f:ca:6f:70:d2:13:40:
         39:9e:f5:3c:6e:d2:b6:61:f5:33:af:29:fd:18:c9:da:5c:f4:
         21:35:a7:a5:42:35:b1:44:59:2b:56:03:f9:24:0b:e5:60:e5:
         e6:25:c5:21:33:ef:e0:c4:20:1b:b9:ff:50:ab:b7:43:62:dc:
         51:5f:da:67:5d:b6:9c:50:4d:8b:18:ef:d4:6b:08:39:0a:14:
         86:26:55:55:b5:dd:93:4e:f2:6f:46:53:75:8d:9d:e4:f8:a2:
         e1:1e:0b:47:e1:ad:12:cd:a3:ef:0e:f2:dd:24:92:4d:22:f6:
         b7:8f:27:35
-----BEGIN CERTIFICATE-----
MIIC3jCCAcagAwIBAgICEAIwDQYJKoZIhvcNAQELBQAwGzEZMBcGA1UEAwwQQ2xp
ZW50IENlcnQgMiBDQTAeFw0xOTEyMDYwODAzMzVaFw0yOTEyMDMwODAzMzVaMBgx
FjAUBgNVBAMMDUNsaWVudCBDZXJ0IDIwggEiMA0GCSqGSIb3DQEBAQUAA4IBDwAw
ggEKAoIBAQDYCJ/P1xVRqN0TI9ltmmxVj4UuczZIYbf6Mni97Y6UQTQgIbKkGn8x
oVGYX3HWcYN3cskzr5WMxDznpjbQmmUfobVEDAnLqTBGwXlX3uK+wEimxKxpfb7y
d3LcWjKU7XBZx5aUANu3oA4nilBoJ14YGli0o0imxXWch+IApHtOLCIrQ4F8UpoQ
L6Kx2D3lbFlf0H4y5qs65kJMi5GMq0DOe5LmWDZy60oN/JgYNaKyANM3nC653Lw8
UAhlJS/uWvoqN/oFG717ZVPpRJ9im38xC+Pcu+HtujY/yy76MUTJOevpS+/gOGKB
Y6maWyF8/Ed3RQ2TLfFtG6UZzkShPyWRAgMBAAGjLzAtMAwGA1UdEwEB/wQCMAAw
HQYDVR0lBBYwFAYIKwYBBQUHAwEGCCsGAQUFBwMCMA0GCSqGSIb3DQEBCwUAA4IB
AQALA0H4ynxR9I/pWbPLQ9A3G6a0b7OTAXOIuTG5dwqVoE2wdG6hdGGokckrDv/t
HxT7rmSC84W70MucMULAXmOFjffRUNu8HHlu8G480br/dAiKEdznR2qNbTleDYju
8be7fAd68a3B9j/5qXA5jPt3Mpzm2yiFunGJoTcETS7yH912HHbHsYJr/V/Kb3DS
E0A5nvU8btK2YfUzryn9GMnaXPQhNaelQjWxRFkrVgP5JAvlYOXmJcUhM+/gxCAb
uf9Qq7dDYtxRX9pnXbacUE2LGO/Uawg5ChSGJlVVtd2TTvJvRlN1jZ3k+KLhHgtH
4a0SzaPvDvLdJJJNIva3jyc1
-----END CERTIFICATE-----
