Certificate:
    Data:
        Version: 3 (0x2)
        Serial Number: 2 (0x2)
        Signature Algorithm: sha256WithRSAEncryption
        Issuer: CN=root_ca_cert
        Validity
            Not Before: Dec  5 12:53:24 2019 GMT
            Not After : Dec  2 12:53:24 2029 GMT
        Subject: CN=intermediate_ca_cert
        Subject Public Key Info:
            Public Key Algorithm: rsaEncryption
                RSA Public-Key: (2048 bit)
                Modulus:
                    00:a7:8e:b6:1f:bc:0f:eb:6b:76:6f:da:7e:cb:2d:
                    1d:33:79:27:6b:6a:fb:da:62:1b:f1:6d:87:ad:b0:
                    19:88:7b:08:79:5c:61:7e:83:c2:20:e3:9d:9c:89:
                    6c:a9:b0:d9:d5:5f:72:a2:67:6d:e7:5e:df:22:3e:
                    3e:3c:39:18:94:af:a5:19:fe:5f:5f:bf:8c:88:89:
                    8b:e2:ef:6c:80:04:a8:58:d8:85:17:36:09:46:13:
                    94:a5:d6:c4:6f:94:74:01:0c:25:80:5e:38:0f:15:
                    e0:3f:0f:e9:40:66:5a:e1:fc:14:d5:e9:e5:50:d3:
                    f2:bf:4a:cd:d5:e6:ea:51:c4:e0:eb:65:73:4a:5b:
                    70:35:a7:f5:35:4e:9a:9d:00:4e:a3:93:93:2b:28:
                    0a:f0:0d:90:2e:bd:b9:cc:1a:64:fa:b1:cd:3b:e9:
                    75:d1:85:d0:44:9e:59:99:77:08:90:67:08:d3:46:
                    ff:43:89:c0:6f:a8:cd:df:a8:8c:77:86:9a:72:a2:
                    5a:b2:d3:7e:09:6f:8d:77:ed:c0:1a:f7:c5:4a:2c:
                    a7:f5:29:9b:71:e4:62:34:ba:e9:29:c4:4a:ac:4f:
                    18:0f:98:f3:72:4b:1f:fd:81:ca:ae:99:49:06:8f:
                    74:47:6e:49:9b:44:f3:86:88:e4:57:40:bc:33:97:
                    b0:5b
                Exponent: 65537 (0x10001)
        X509v3 extensions:
            X509v3 Basic Constraints: critical
                CA:TRUE
            X509v3 Subject Key Identifier: 
                31:D7:EC:7F:E7:37:E4:67:ED:11:71:45:B7:2C:A1:E7:76:6C:41:CF
            X509v3 Authority Key Identifier: 
                keyid:73:5E:BD:A5:74:8E:8C:C5:31:90:07:60:92:D9:D7:2C:57:AF:4C:67

            X509v3 Key Usage: critical
                Certificate Sign, CRL Sign
    Signature Algorithm: sha256WithRSAEncryption
         32:c7:d4:0a:49:44:1a:cd:e7:d4:d2:3c:9e:5b:aa:47:af:cf:
         0f:bb:ee:1a:45:fb:5a:63:2f:d2:d4:8f:72:28:db:6a:6b:92:
         1a:91:3a:45:8e:9b:50:e8:ac:a3:dc:8c:55:f6:69:1b:9e:60:
         60:24:3d:c1:28:95:a8:11:8c:ec:03:8a:3f:43:fa:f1:c1:35:
         9c:4c:76:1e:e6:5f:f8:08:4b:e9:f6:31:5b:13:a5:78:e2:37:
         53:32:55:4b:76:6c:a5:08:e4:4b:74:7e:50:1b:46:25:c1:e8:
         04:43:f1:a7:9f:6d:2d:be:1b:f2:f8:db:d0:53:ac:3d:1a:50:
         53:f3:1e:4a:6a:22:89:c0:90:a0:aa:d6:33:e6:68:a9:11:aa:
         73:a5:04:9e:78:33:ae:0e:dc:70:0e:ef:34:47:7b:88:fa:64:
         73:72:3d:8f:01:8c:dd:2d:5c:a9:18:e5:5b:d5:2b:e4:44:85:
         4c:b5:be:4f:89:59:fe:f6:8c:e7:85:d7:89:9b:db:28:e8:43:
         79:7a:47:5d:c8:4a:d5:00:87:bc:17:41:9c:37:23:61:87:68:
         71:fa:d8:61:78:2c:c7:fb:04:1c:63:2a:87:c1:e9:83:84:28:
         f4:df:41:10:ec:2c:52:bc:7e:56:1a:71:8a:e1:ee:b9:f5:3c:
         00:48:83:36
-----BEGIN CERTIFICATE-----
MIIDFDCCAfygAwIBAgIBAjANBgkqhkiG9w0BAQsFADAXMRUwEwYDVQQDDAxyb290
X2NhX2NlcnQwHhcNMTkxMjA1MTI1MzI0WhcNMjkxMjAyMTI1MzI0WjAfMR0wGwYD
VQQDDBRpbnRlcm1lZGlhdGVfY2FfY2VydDCCASIwDQYJKoZIhvcNAQEBBQADggEP
ADCCAQoCggEBAKeOth+8D+trdm/afsstHTN5J2tq+9piG/Fth62wGYh7CHlcYX6D
wiDjnZyJbKmw2dVfcqJnbede3yI+Pjw5GJSvpRn+X1+/jIiJi+LvbIAEqFjYhRc2
CUYTlKXWxG+UdAEMJYBeOA8V4D8P6UBmWuH8FNXp5VDT8r9KzdXm6lHE4Otlc0pb
cDWn9TVOmp0ATqOTkysoCvANkC69ucwaZPqxzTvpddGF0ESeWZl3CJBnCNNG/0OJ
wG+ozd+ojHeGmnKiWrLTfglvjXftwBr3xUosp/Upm3HkYjS66SnESqxPGA+Y83JL
H/2Byq6ZSQaPdEduSZtE84aI5FdAvDOXsFsCAwEAAaNjMGEwDwYDVR0TAQH/BAUw
AwEB/zAdBgNVHQ4EFgQUMdfsf+c35GftEXFFtyyh53ZsQc8wHwYDVR0jBBgwFoAU
c169pXSOjMUxkAdgktnXLFevTGcwDgYDVR0PAQH/BAQDAgEGMA0GCSqGSIb3DQEB
CwUAA4IBAQAyx9QKSUQazefU0jyeW6pHr88Pu+4aRftaYy/S1I9yKNtqa5IakTpF
jptQ6Kyj3IxV9mkbnmBgJD3BKJWoEYzsA4o/Q/rxwTWcTHYe5l/4CEvp9jFbE6V4
4jdTMlVLdmylCORLdH5QG0YlwegEQ/Gnn20tvhvy+NvQU6w9GlBT8x5KaiKJwJCg
qtYz5mipEapzpQSeeDOuDtxwDu80R3uI+mRzcj2PAYzdLVypGOVb1SvkRIVMtb5P
iVn+9oznhdeJm9so6EN5ekddyErVAIe8F0GcNyNhh2hx+thheCzH+wQcYyqHwemD
hCj030EQ7CxSvH5WGnGK4e659TwASIM2
-----END CERTIFICATE-----
