Certificate:
    Data:
        Version: 3 (0x2)
        Serial Number: 1 (0x1)
        Signature Algorithm: sha256WithRSAEncryption
        Issuer: CN=intermediate_ca_cert
        Validity
            Not Before: Dec  5 12:53:24 2019 GMT
            Not After : Dec  2 12:53:24 2029 GMT
        Subject: CN=127.0.0.1
        Subject Public Key Info:
            Public Key Algorithm: rsaEncryption
                RSA Public-Key: (2048 bit)
                Modulus:
                    00:bc:29:79:d8:52:a4:4a:25:70:67:e4:46:b9:f4:
                    14:2a:25:8c:5d:ec:34:9d:a7:fb:aa:ac:b8:c3:f2:
                    16:e2:d4:08:e4:12:44:f6:f8:2a:db:ee:f1:00:69:
                    9f:fd:31:31:be:f9:de:aa:66:a8:d9:76:54:f4:0e:
                    75:27:8c:07:c1:ea:0b:08:ad:26:c5:28:59:4d:b1:
                    56:30:8e:36:8d:7d:c6:90:87:ca:51:65:39:2b:43:
                    b8:a2:44:a8:b2:06:c7:5e:3e:aa:2a:8f:80:a8:9d:
                    4b:67:f8:59:ea:50:7e:f6:ef:c1:18:25:ae:9d:46:
                    93:3e:5a:63:03:96:0d:ab:ce:16:7f:bc:fe:1c:73:
                    c2:92:3c:38:c5:be:83:de:5a:b1:6a:44:7b:4e:9b:
                    73:33:c5:94:ab:36:c5:a4:81:4e:c9:c2:f6:4b:da:
                    5d:c7:86:c4:73:a7:74:4d:92:05:f9:01:70:ed:c4:
                    10:89:40:74:e8:66:02:63:8a:d8:77:d8:52:80:a0:
                    81:67:e3:a9:f2:e1:91:2c:cf:9a:31:c1:17:03:78:
                    b2:b9:12:7c:ec:6e:a3:bf:25:50:ed:5b:c9:c2:64:
                    b1:09:98:45:d9:34:2a:56:6d:1d:9d:e1:ce:86:f2:
                    d7:10:82:43:b0:e2:e3:a1:bb:aa:c7:e0:87:97:b6:
                    2e:5f
                Exponent: 65537 (0x10001)
        X509v3 extensions:
            X509v3 Basic Constraints: critical
                CA:FALSE
            X509v3 Subject Key Identifier: 
                58:D5:57:94:63:04:1A:FD:AB:E6:35:8E:E3:30:65:D8:9A:6B:AF:DD
            X509v3 Authority Key Identifier: 
                keyid:31:D7:EC:7F:E7:37:E4:67:ED:11:71:45:B7:2C:A1:E7:76:6C:41:CF

            X509v3 Extended Key Usage: 
                TLS Web Server Authentication, TLS Web Client Authentication
            X509v3 Subject Alternative Name: 
                IP Address:127.0.0.1
    Signature Algorithm: sha256WithRSAEncryption
         4e:f3:61:77:56:38:53:56:ba:ec:e0:6d:3b:71:c5:cb:1d:35:
         ff:55:79:17:c8:26:ec:ce:3e:8d:b8:86:b8:97:8a:e3:b0:d3:
         17:25:72:17:e0:c5:d1:69:5b:30:62:37:4f:94:31:ee:e0:03:
         84:16:51:27:0d:63:f2:bb:2a:de:d9:7a:03:78:eb:37:2e:1b:
         bf:90:4a:48:0f:f8:da:c6:1d:4c:5c:e6:18:6e:8d:e4:24:43:
         54:ab:69:f1:3c:2f:1a:f3:7d:d7:17:14:1d:2e:3e:e1:35:45:
         a2:db:30:38:f3:c6:d7:30:c4:75:41:e6:53:8f:38:5e:2b:94:
         0e:b7:30:81:c9:93:72:ba:51:80:cd:1f:cc:16:8d:7c:ae:4f:
         a6:73:c1:8a:da:f2:e3:67:bc:ea:a0:64:a3:21:ca:fb:b1:85:
         f8:42:ba:b8:84:ca:8b:5f:08:64:a3:00:a6:80:ad:72:51:58:
         9e:74:d2:4a:c5:c8:a0:c9:22:a9:d4:6a:cc:8f:1b:0b:d6:66:
         17:0a:25:19:0c:d6:36:b6:19:e1:4b:b6:06:48:30:3c:00:c6:
         37:ae:52:8a:e1:30:cd:68:1d:b6:d8:a3:e1:35:cf:67:fb:e8:
         c5:50:64:4d:1a:79:e9:49:a6:55:a5:08:3f:cf:31:cd:e8:92:
         a1:13:03:61
-----BEGIN CERTIFICATE-----
MIIDLzCCAhegAwIBAgIBATANBgkqhkiG9w0BAQsFADAfMR0wGwYDVQQDDBRpbnRl
cm1lZGlhdGVfY2FfY2VydDAeFw0xOTEyMDUxMjUzMjRaFw0yOTEyMDIxMjUzMjRa
MBQxEjAQBgNVBAMMCTEyNy4wLjAuMTCCASIwDQYJKoZIhvcNAQEBBQADggEPADCC
AQoCggEBALwpedhSpEolcGfkRrn0FColjF3sNJ2n+6qsuMPyFuLUCOQSRPb4Ktvu
8QBpn/0xMb753qpmqNl2VPQOdSeMB8HqCwitJsUoWU2xVjCONo19xpCHylFlOStD
uKJEqLIGx14+qiqPgKidS2f4WepQfvbvwRglrp1Gkz5aYwOWDavOFn+8/hxzwpI8
OMW+g95asWpEe06bczPFlKs2xaSBTsnC9kvaXceGxHOndE2SBfkBcO3EEIlAdOhm
AmOK2HfYUoCggWfjqfLhkSzPmjHBFwN4srkSfOxuo78lUO1bycJksQmYRdk0KlZt
HZ3hzoby1xCCQ7Di46G7qsfgh5e2Ll8CAwEAAaOBgDB+MAwGA1UdEwEB/wQCMAAw
HQYDVR0OBBYEFFjVV5RjBBr9q+Y1juMwZdiaa6/dMB8GA1UdIwQYMBaAFDHX7H/n
N+Rn7RFxRbcsoed2bEHPMB0GA1UdJQQWMBQGCCsGAQUFBwMBBggrBgEFBQcDAjAP
BgNVHREECDAGhwR/AAABMA0GCSqGSIb3DQEBCwUAA4IBAQBO82F3VjhTVrrs4G07
ccXLHTX/VXkXyCbszj6NuIa4l4rjsNMXJXIX4MXRaVswYjdPlDHu4AOEFlEnDWPy
uyre2XoDeOs3Lhu/kEpID/jaxh1MXOYYbo3kJENUq2nxPC8a833XFxQdLj7hNUWi
2zA488bXMMR1QeZTjzheK5QOtzCByZNyulGAzR/MFo18rk+mc8GK2vLjZ7zqoGSj
Icr7sYX4Qrq4hMqLXwhkowCmgK1yUViedNJKxcigySKp1GrMjxsL1mYXCiUZDNY2
thnhS7YGSDA8AMY3rlKK4TDNaB222KPhNc9n++jFUGRNGnnpSaZVpQg/zzHN6JKh
EwNh
-----END CERTIFICATE-----
