Certificate:
    Data:
        Version: 3 (0x2)
        Serial Number: 1 (0x1)
        Signature Algorithm: sha256WithRSAEncryption
        Issuer: CN=root_ca_cert
        Validity
            Not Before: Dec  5 12:53:23 2019 GMT
            Not After : Dec  2 12:53:23 2029 GMT
        Subject: CN=127.0.0.1
        Subject Public Key Info:
            Public Key Algorithm: rsaEncryption
                RSA Public-Key: (2048 bit)
                Modulus:
                    00:bb:25:90:3d:f7:46:7c:5a:ec:c7:28:37:97:7a:
                    60:08:e1:89:08:f6:25:2e:4e:24:35:72:7f:3c:f6:
                    e8:79:6c:b9:da:0e:52:65:5d:3b:89:81:8d:7c:3f:
                    36:84:30:85:5d:08:e1:05:0e:11:33:7c:e9:bf:7f:
                    85:78:6c:c9:31:d8:ad:2c:af:41:e5:47:10:b8:06:
                    a5:99:2a:f1:c3:23:dd:1c:72:2b:3f:bf:46:54:b8:
                    aa:0d:ee:7b:3e:0c:5b:34:5a:bd:d5:d5:c4:71:cc:
                    db:25:43:cc:26:31:5a:bf:6a:16:ba:64:de:fb:00:
                    cd:36:29:9f:0a:e8:e4:7e:df:e4:45:21:9f:05:7e:
                    be:0c:b1:ad:69:40:87:01:c9:24:42:96:67:38:8d:
                    26:0e:dc:9e:25:3d:0e:cd:4c:76:01:9e:8a:18:f5:
                    73:d0:3c:da:7b:b3:98:98:72:3d:f3:8a:c5:df:49:
                    b9:6e:8c:a1:75:48:4c:92:b3:55:88:43:47:e0:4e:
                    95:25:23:b4:20:e9:44:33:0e:03:d8:a2:32:8d:49:
                    ea:a9:e6:b4:a1:82:78:8a:6b:2c:e9:68:ba:d6:63:
                    d8:ee:ff:52:a9:8a:0b:13:28:cd:39:2b:e3:2a:26:
                    26:28:d1:6f:3e:c4:da:6d:2b:06:46:e9:8e:fb:ae:
                    bd:e9
                Exponent: 65537 (0x10001)
        X509v3 extensions:
            X509v3 Basic Constraints: critical
                CA:FALSE
            X509v3 Subject Key Identifier: 
                A7:D5:9A:CC:0C:F6:64:01:F7:6D:43:C9:88:E8:BB:E0:2C:5B:AB:AB
            X509v3 Authority Key Identifier: 
                keyid:73:5E:BD:A5:74:8E:8C:C5:31:90:07:60:92:D9:D7:2C:57:AF:4C:67

            X509v3 Extended Key Usage: 
                TLS Web Server Authentication, TLS Web Client Authentication
            X509v3 Subject Alternative Name: 
                IP Address:127.0.0.1
    Signature Algorithm: sha256WithRSAEncryption
         82:49:5c:d8:42:5e:2f:57:50:2b:a5:8f:36:09:3a:50:6a:54:
         cc:98:a9:e2:42:31:79:74:18:da:0d:ea:98:2e:fd:3d:74:bd:
         36:e2:91:83:42:fd:fc:a8:00:e2:ad:5a:70:65:b3:23:8d:9d:
         63:38:d0:b4:dc:0b:b0:62:16:8f:5e:18:a8:39:d8:bf:aa:07:
         10:71:26:99:7e:c9:90:22:62:a1:19:1d:37:71:80:16:30:eb:
         77:92:22:4b:34:84:94:01:83:cc:12:94:c6:80:3e:ce:dd:fb:
         fb:7a:51:bc:0e:5f:7b:10:c3:bb:4c:f5:67:f8:c2:84:c2:55:
         1f:28:fe:ce:d5:19:38:d7:39:c3:15:ef:53:8c:c9:3d:97:3e:
         9f:2a:67:8e:aa:4b:e6:99:e5:2a:b2:ce:0c:2c:a0:d4:dd:e1:
         41:0b:94:76:ac:48:b5:6e:d4:5c:4f:18:14:48:71:8e:42:94:
         43:63:27:c5:be:76:b5:2b:5b:90:89:d5:18:08:fc:01:41:ef:
         b1:62:bc:9b:38:40:20:f3:35:26:f2:a3:3a:35:8f:fb:28:40:
         3d:4d:a4:a2:ca:a9:b0:3d:b5:9d:39:b4:aa:b0:84:56:2f:21:
         89:e4:50:0d:91:5d:43:d4:dc:e3:d4:a6:98:dc:9c:80:e8:36:
         aa:6a:6f:bd
-----BEGIN CERTIFICATE-----
MIIDJzCCAg+gAwIBAgIBATANBgkqhkiG9w0BAQsFADAXMRUwEwYDVQQDDAxyb290
X2NhX2NlcnQwHhcNMTkxMjA1MTI1MzIzWhcNMjkxMjAyMTI1MzIzWjAUMRIwEAYD
VQQDDAkxMjcuMC4wLjEwggEiMA0GCSqGSIb3DQEBAQUAA4IBDwAwggEKAoIBAQC7
JZA990Z8WuzHKDeXemAI4YkI9iUuTiQ1cn889uh5bLnaDlJlXTuJgY18PzaEMIVd
COEFDhEzfOm/f4V4bMkx2K0sr0HlRxC4BqWZKvHDI90ccis/v0ZUuKoN7ns+DFs0
Wr3V1cRxzNslQ8wmMVq/aha6ZN77AM02KZ8K6OR+3+RFIZ8Ffr4Msa1pQIcBySRC
lmc4jSYO3J4lPQ7NTHYBnooY9XPQPNp7s5iYcj3zisXfSblujKF1SEySs1WIQ0fg
TpUlI7Qg6UQzDgPYojKNSeqp5rShgniKayzpaLrWY9ju/1KpigsTKM05K+MqJiYo
0W8+xNptKwZG6Y77rr3pAgMBAAGjgYAwfjAMBgNVHRMBAf8EAjAAMB0GA1UdDgQW
BBSn1ZrMDPZkAfdtQ8mI6LvgLFurqzAfBgNVHSMEGDAWgBRzXr2ldI6MxTGQB2CS
2dcsV69MZzAdBgNVHSUEFjAUBggrBgEFBQcDAQYIKwYBBQUHAwIwDwYDVR0RBAgw
BocEfwAAATANBgkqhkiG9w0BAQsFAAOCAQEAgklc2EJeL1dQK6WPNgk6UGpUzJip
4kIxeXQY2g3qmC79PXS9NuKRg0L9/KgA4q1acGWzI42dYzjQtNwLsGIWj14YqDnY
v6oHEHEmmX7JkCJioRkdN3GAFjDrd5IiSzSElAGDzBKUxoA+zt37+3pRvA5fexDD
u0z1Z/jChMJVHyj+ztUZONc5wxXvU4zJPZc+nypnjqpL5pnlKrLODCyg1N3hQQuU
dqxItW7UXE8YFEhxjkKUQ2Mnxb52tStbkInVGAj8AUHvsWK8mzhAIPM1JvKjOjWP
+yhAPU2kosqpsD21nTm0qrCEVi8hieRQDZFdQ9Tc49SmmNycgOg2qmpvvQ==
-----END CERTIFICATE-----
