Certificate:
    Data:
        Version: 1 (0x0)
        Serial Number: 237 (0xed)
        Signature Algorithm: ecdsa-with-SHA1
        Issuer: CN=secp256k1 ecdsa Test intermediate CA
        Validity
            Not Before: Dec 10 01:51:17 2011 GMT
            Not After : Dec  9 01:51:17 2012 GMT
        Subject: C=US, ST=California, L=Mountain View, O=Test CA, CN=127.0.0.1
        Subject Public Key Info:
            Public Key Algorithm: rsaEncryption
            RSA Public Key: (1024 bit)
                Modulus (1024 bit):
                    00:9b:1b:ad:af:0e:61:db:3f:dc:b7:91:5d:bf:1f:
                    0a:70:6a:fa:89:b7:6e:fc:aa:ef:ce:9e:db:6c:4c:
                    9a:2d:81:7b:59:96:20:eb:11:ef:e4:85:c6:ca:33:
                    41:22:4a:20:86:9c:01:02:f9:63:13:9b:3b:1e:f5:
                    a9:3e:40:98:8e:78:1f:99:32:64:2f:4c:dc:ae:3a:
                    e7:cf:00:22:2f:77:f2:be:7b:64:9c:a0:92:27:b1:
                    35:4d:44:de:7b:cd:75:4a:a7:9b:27:e0:3c:0b:13:
                    ee:57:5a:f7:c2:81:c0:b8:ea:0b:39:b5:6f:17:57:
                    24:f0:c0:c5:4b:b3:0d:92:6f
                Exponent: 65537 (0x10001)
        X509v3 extensions:
            X509v3 Subject Alternative Name: 
                IP Address:127.0.0.1
    Signature Algorithm: ecdsa-with-SHA1
        30:46:02:21:00:83:ef:77:11:e7:67:3c:53:20:88:b6:03:10:
        e8:e5:9b:a1:12:48:3a:1e:a8:3b:31:fa:1b:56:95:28:d3:6e:
        6b:02:21:00:cd:e3:2c:6e:41:59:e2:6a:d4:ec:de:11:99:99:
        e6:b7:7e:90:89:91:e5:35:d1:2c:c7:15:e7:46:94:ab:11:6f
-----BEGIN CERTIFICATE-----
MIIB0zCCAXkCAgDtMAkGByqGSM49BAEwLzEtMCsGA1UEAwwkc2VjcDI1NmsxIGVj
ZHNhIFRlc3QgaW50ZXJtZWRpYXRlIENBMB4XDTExMTIxMDAxNTExN1oXDTEyMTIw
OTAxNTExN1owYDELMAkGA1UEBhMCVVMxEzARBgNVBAgMCkNhbGlmb3JuaWExFjAU
BgNVBAcMDU1vdW50YWluIFZpZXcxEDAOBgNVBAoMB1Rlc3QgQ0ExEjAQBgNVBAMM
CTEyNy4wLjAuMTCBnzANBgkqhkiG9w0BAQEFAAOBjQAwgYkCgYEAmxutrw5h2z/c
t5Fdvx8KcGr6ibdu/Krvzp7bbEyaLYF7WZYg6xHv5IXGyjNBIkoghpwBAvljE5s7
HvWpPkCYjngfmTJkL0zcrjrnzwAiL3fyvntknKCSJ7E1TUTee811SqebJ+A8CxPu
V1r3woHAuOoLObVvF1ck8MDFS7MNkm8CAwEAAaMTMBEwDwYDVR0RBAgwBocEfwAA
ATAJBgcqhkjOPQQBA0kAMEYCIQCD73cR52c8UyCItgMQ6OWboRJIOh6oOzH6G1aV
KNNuawIhAM3jLG5BWeJq1OzeEZmZ5rd+kImR5TXRLMcV50aUqxFv
-----END CERTIFICATE-----
