Certificate:
    Data:
        Version: 3 (0x2)
        Serial Number:
            14:c8:c7:f1:f1:6b:91:0b:18:45:4b:c0:65:f2:fc:0f
        Signature Algorithm: sha256WithRSAEncryption
        Issuer: C=US, ST=California, L=Mountain View, O=Test CA, CN=Test Root CA
        Validity
            Not Before: Oct 30 00:00:00 2008 GMT
            Not After : Oct 29 00:00:00 2018 GMT
        Subject: C=US, ST=California, L=Mountain View, O=Test CA, CN=127.0.0.1
        Subject Public Key Info:
            Public Key Algorithm: rsaEncryption
                Public-Key: (2048 bit)
                Modulus:
                    00:d7:20:22:4e:2a:e4:1c:80:bc:7a:aa:04:79:48:
                    38:46:6e:00:7a:58:85:37:ee:60:4a:55:31:70:7e:
                    ea:4a:a1:94:18:f9:de:f8:7c:f3:0b:48:aa:e1:8e:
                    0f:b2:ea:0f:1b:7a:5e:cb:8a:35:48:e7:9d:ac:d6:
                    ef:73:3c:c1:06:e9:f0:16:ae:32:4c:d0:c9:7e:8c:
                    89:be:fa:6e:4c:8c:35:c6:21:09:2f:37:e3:41:db:
                    e3:03:d1:cf:ba:3f:3f:5b:1e:8a:80:de:bf:e5:1f:
                    ba:23:9e:03:e5:81:f3:0f:a6:3c:5a:db:6f:78:d2:
                    66:e7:b3:4d:3b:99:ed:78:d8:28:d8:b6:31:2c:e5:
                    48:35:ff:8e:38:a5:a6:88:d4:db:65:ea:92:bb:18:
                    9b:ad:84:72:d4:97:e5:bf:5d:d8:71:3c:a1:71:94:
                    45:2a:86:10:a1:2d:ae:09:ba:fa:34:f3:7d:c5:f8:
                    7b:b7:ba:84:3d:c9:18:1c:8e:de:48:23:65:b0:80:
                    79:40:e3:09:5a:9e:c3:3d:4f:de:93:43:41:11:b0:
                    2e:7d:ce:b5:41:e4:93:28:53:4c:ef:d1:29:66:d6:
                    02:00:80:f8:d6:9b:9d:37:19:a9:3f:dc:ba:12:e4:
                    22:0c:ef:ec:bc:a6:e8:88:a8:6a:c8:45:a9:80:80:
                    bc:89
                Exponent: 65537 (0x10001)
        X509v3 extensions:
            X509v3 Basic Constraints: critical
                CA:FALSE
            X509v3 Subject Key Identifier: 
                27:C5:EC:34:BC:76:EB:BA:E9:A4:55:B6:A8:BB:81:3D:8D:D0:EF:A5
            X509v3 Authority Key Identifier: 
                9B:26:0B:8A:98:A9:BB:1D:B9:1F:1C:E3:1A:40:33:ED:8E:17:88:AB
            X509v3 Extended Key Usage: 
                TLS Web Server Authentication, TLS Web Client Authentication
            X509v3 Subject Alternative Name: 
                IP Address:127.0.0.1
    Signature Algorithm: sha256WithRSAEncryption
    Signature Value:
        1a:09:b4:4c:59:d5:9e:12:c7:06:6e:f2:2b:8d:a4:13:cf:1e:
        d9:89:0d:40:07:42:f6:72:6a:da:a0:9e:5b:07:03:f8:0b:e6:
        90:2d:a3:ec:b1:3f:93:36:28:48:dc:8e:21:82:b9:7a:18:e8:
        56:4b:d2:79:30:94:f0:24:5f:c6:5f:55:b8:90:46:37:27:40:
        cf:4e:59:4a:a2:90:9d:2e:5f:63:8e:dc:a5:1c:d6:ba:0b:2e:
        60:8e:1e:ec:0c:5b:a5:71:92:1d:a5:5b:98:a5:0f:1a:30:ab:
        5f:fc:25:b9:b3:d2:b7:7e:a6:8a:65:d2:e2:ae:5d:d0:ee:40:
        58:0b:91:ba:7a:12:13:82:f2:2a:45:57:0b:8b:9c:c9:27:d7:
        4c:b4:51:ff:5f:b3:94:ac:1d:18:c0:ad:3d:73:42:99:66:d5:
        01:3a:db:10:cd:02:0d:6a:82:70:dc:58:90:29:8f:46:ea:db:
        aa:9a:51:3b:e5:73:e9:8b:b7:95:6c:0a:62:08:1e:1f:c0:a2:
        70:bc:10:55:ab:ef:ac:80:0d:e0:fb:d5:a3:39:74:bc:57:bb:
        e3:9a:32:50:36:08:97:99:74:69:8d:3a:11:3b:5e:b9:8f:82:
        79:df:8c:74:c0:40:e5:5e:5b:14:8b:5e:d2:de:3b:84:59:32:
        54:39:df:30
-----BEGIN CERTIFICATE-----
MIIDzjCCAragAwIBAgIQFMjH8fFrkQsYRUvAZfL8DzANBgkqhkiG9w0BAQsFADBj
MQswCQYDVQQGEwJVUzETMBEGA1UECAwKQ2FsaWZvcm5pYTEWMBQGA1UEBwwNTW91
bnRhaW4gVmlldzEQMA4GA1UECgwHVGVzdCBDQTEVMBMGA1UEAwwMVGVzdCBSb290
IENBMB4XDTA4MTAzMDAwMDAwMFoXDTE4MTAyOTAwMDAwMFowYDELMAkGA1UEBhMC
VVMxEzARBgNVBAgMCkNhbGlmb3JuaWExFjAUBgNVBAcMDU1vdW50YWluIFZpZXcx
EDAOBgNVBAoMB1Rlc3QgQ0ExEjAQBgNVBAMMCTEyNy4wLjAuMTCCASIwDQYJKoZI
hvcNAQEBBQADggEPADCCAQoCggEBANcgIk4q5ByAvHqqBHlIOEZuAHpYhTfuYEpV
MXB+6kqhlBj53vh88wtIquGOD7LqDxt6XsuKNUjnnazW73M8wQbp8BauMkzQyX6M
ib76bkyMNcYhCS8340Hb4wPRz7o/P1seioDev+UfuiOeA+WB8w+mPFrbb3jSZuez
TTuZ7XjYKNi2MSzlSDX/jjilpojU22XqkrsYm62EctSX5b9d2HE8oXGURSqGEKEt
rgm6+jTzfcX4e7e6hD3JGByO3kgjZbCAeUDjCVqewz1P3pNDQRGwLn3OtUHkkyhT
TO/RKWbWAgCA+NabnTcZqT/cuhLkIgzv7Lym6IioashFqYCAvIkCAwEAAaOBgDB+
MAwGA1UdEwEB/wQCMAAwHQYDVR0OBBYEFCfF7DS8duu66aRVtqi7gT2N0O+lMB8G
A1UdIwQYMBaAFJsmC4qYqbsduR8c4xpAM+2OF4irMB0GA1UdJQQWMBQGCCsGAQUF
BwMBBggrBgEFBQcDAjAPBgNVHREECDAGhwR/AAABMA0GCSqGSIb3DQEBCwUAA4IB
AQAaCbRMWdWeEscGbvIrjaQTzx7ZiQ1AB0L2cmraoJ5bBwP4C+aQLaPssT+TNihI
3I4hgrl6GOhWS9J5MJTwJF/GX1W4kEY3J0DPTllKopCdLl9jjtylHNa6Cy5gjh7s
DFulcZIdpVuYpQ8aMKtf/CW5s9K3fqaKZdLirl3Q7kBYC5G6ehITgvIqRVcLi5zJ
J9dMtFH/X7OUrB0YwK09c0KZZtUBOtsQzQINaoJw3FiQKY9G6tuqmlE75XPpi7eV
bApiCB4fwKJwvBBVq++sgA3g+9WjOXS8V7vjmjJQNgiXmXRpjToRO165j4J534x0
wEDlXlsUi17S3juEWTJUOd8w
-----END CERTIFICATE-----
