Certificate:
    Data:
        Version: 3 (0x2)
        Serial Number:
            14:c8:c7:f1:f1:6b:91:0b:18:45:4b:c0:65:f2:fc:10
        Signature Algorithm: sha256WithRSAEncryption
        Issuer: C=US, ST=California, L=Mountain View, O=Test CA, CN=Test Root CA
        Validity
            Not Before: Oct 30 00:00:00 2014 GMT
            Not After : Oct 30 00:00:00 2025 GMT
        Subject: C=US, ST=California, L=Mountain View, O=Test CA, CN=127.0.0.1
        Subject Public Key Info:
            Public Key Algorithm: rsaEncryption
                Public-Key: (2048 bit)
                Modulus:
                    00:f3:a1:09:a0:d1:eb:dc:cb:4c:08:7c:4e:22:c6:
                    8b:49:1d:0d:7e:95:42:ed:31:be:63:56:ba:af:e5:
                    e1:64:97:38:84:4c:32:8e:9a:9c:f9:6d:25:5d:1d:
                    fc:85:a4:89:d5:58:1a:92:57:1b:6e:57:38:34:44:
                    62:27:9f:99:7e:7b:69:b1:12:14:5f:65:2b:f9:a5:
                    6c:19:7b:5c:9e:80:b6:85:20:27:9d:7a:18:54:be:
                    4f:43:2e:39:21:2d:db:56:67:ff:16:39:0a:f5:bb:
                    06:00:c4:46:55:3e:56:45:3e:f7:98:6a:03:a5:9a:
                    41:cc:c8:78:7e:05:06:6d:b5:7c:1f:94:a1:71:f3:
                    49:5f:c9:e3:71:41:89:10:67:97:4d:95:fc:39:2d:
                    92:09:85:42:c5:5b:34:60:f4:a1:38:b8:4b:fc:66:
                    fe:a2:1e:e4:3e:44:6a:03:80:59:a8:68:24:a8:e9:
                    30:65:7e:f8:66:27:c9:82:e3:ef:38:d5:52:0f:36:
                    ab:70:b8:44:f2:5a:ba:55:96:53:81:cf:60:e3:64:
                    67:ea:60:cd:67:57:ec:df:c8:b6:04:b8:6b:b3:1a:
                    f8:54:72:5b:88:e1:9e:94:cd:c1:c3:9b:02:32:63:
                    4a:64:40:8d:f0:08:9c:de:35:67:4c:d2:28:92:b6:
                    b5:d5
                Exponent: 65537 (0x10001)
        X509v3 extensions:
            X509v3 Basic Constraints: critical
                CA:FALSE
            X509v3 Subject Key Identifier: 
                65:F0:39:B4:CD:B6:01:8F:EA:20:F6:73:E9:AA:25:EE:12:0B:E2:8B
            X509v3 Authority Key Identifier: 
                9B:26:0B:8A:98:A9:BB:1D:B9:1F:1C:E3:1A:40:33:ED:8E:17:88:AB
            X509v3 Extended Key Usage: 
                TLS Web Server Authentication, TLS Web Client Authentication
            X509v3 Subject Alternative Name: 
                IP Address:127.0.0.1
    Signature Algorithm: sha256WithRSAEncryption
    Signature Value:
        8b:31:e7:f8:41:de:3d:d6:7b:2b:00:84:5a:fb:cb:7c:a3:22:
        98:89:b0:ef:9a:fd:72:e6:30:e0:ec:f2:f0:79:2f:a8:9b:97:
        b8:6d:cf:a9:54:ec:8d:79:08:a7:2c:c4:c5:e8:f7:38:c7:00:
        f6:00:e7:17:0b:59:9e:0f:3c:a1:95:56:50:6e:ec:12:39:34:
        8c:77:93:c0:c2:1d:ae:41:be:7b:44:a5:ab:d6:0d:d2:56:62:
        f9:90:72:95:e2:09:da:d7:8c:0b:b0:fd:18:e6:e9:15:2b:d9:
        d3:50:c5:d4:94:64:41:38:84:9f:fb:76:86:59:50:48:fc:55:
        59:f8:40:c6:a0:9a:65:a7:fc:ef:4b:7e:6a:cd:da:a7:65:c0:
        1e:41:7e:1e:e7:bd:8e:d7:0b:41:75:11:f5:46:91:e6:94:73:
        39:71:86:d7:8f:3d:44:bc:b5:43:6b:77:d7:f6:d6:40:16:18:
        96:a1:cb:9f:1d:1a:17:87:1e:9c:6e:25:46:64:8a:f0:3e:50:
        06:f1:c8:62:b3:b4:23:be:ea:08:c1:50:c2:21:78:f6:e6:35:
        e8:4b:fa:15:8c:79:0e:cb:84:2d:03:6f:cc:27:35:05:7e:98:
        c8:fd:19:5a:0f:99:d1:86:69:85:38:fc:30:ad:66:45:c4:20:
        98:16:29:59
-----BEGIN CERTIFICATE-----
MIIDzjCCAragAwIBAgIQFMjH8fFrkQsYRUvAZfL8EDANBgkqhkiG9w0BAQsFADBj
MQswCQYDVQQGEwJVUzETMBEGA1UECAwKQ2FsaWZvcm5pYTEWMBQGA1UEBwwNTW91
bnRhaW4gVmlldzEQMA4GA1UECgwHVGVzdCBDQTEVMBMGA1UEAwwMVGVzdCBSb290
IENBMB4XDTE0MTAzMDAwMDAwMFoXDTI1MTAzMDAwMDAwMFowYDELMAkGA1UEBhMC
VVMxEzARBgNVBAgMCkNhbGlmb3JuaWExFjAUBgNVBAcMDU1vdW50YWluIFZpZXcx
EDAOBgNVBAoMB1Rlc3QgQ0ExEjAQBgNVBAMMCTEyNy4wLjAuMTCCASIwDQYJKoZI
hvcNAQEBBQADggEPADCCAQoCggEBAPOhCaDR69zLTAh8TiLGi0kdDX6VQu0xvmNW
uq/l4WSXOIRMMo6anPltJV0d/IWkidVYGpJXG25XODREYiefmX57abESFF9lK/ml
bBl7XJ6AtoUgJ516GFS+T0MuOSEt21Zn/xY5CvW7BgDERlU+VkU+95hqA6WaQczI
eH4FBm21fB+UoXHzSV/J43FBiRBnl02V/DktkgmFQsVbNGD0oTi4S/xm/qIe5D5E
agOAWahoJKjpMGV++GYnyYLj7zjVUg82q3C4RPJaulWWU4HPYONkZ+pgzWdX7N/I
tgS4a7Ma+FRyW4jhnpTNwcObAjJjSmRAjfAInN41Z0zSKJK2tdUCAwEAAaOBgDB+
MAwGA1UdEwEB/wQCMAAwHQYDVR0OBBYEFGXwObTNtgGP6iD2c+mqJe4SC+KLMB8G
A1UdIwQYMBaAFJsmC4qYqbsduR8c4xpAM+2OF4irMB0GA1UdJQQWMBQGCCsGAQUF
BwMBBggrBgEFBQcDAjAPBgNVHREECDAGhwR/AAABMA0GCSqGSIb3DQEBCwUAA4IB
AQCLMef4Qd491nsrAIRa+8t8oyKYibDvmv1y5jDg7PLweS+om5e4bc+pVOyNeQin
LMTF6Pc4xwD2AOcXC1meDzyhlVZQbuwSOTSMd5PAwh2uQb57RKWr1g3SVmL5kHKV
4gna14wLsP0Y5ukVK9nTUMXUlGRBOISf+3aGWVBI/FVZ+EDGoJplp/zvS35qzdqn
ZcAeQX4e572O1wtBdRH1RpHmlHM5cYbXjz1EvLVDa3fX9tZAFhiWocufHRoXhx6c
biVGZIrwPlAG8chis7QjvuoIwVDCIXj25jXoS/oVjHkOy4QtA2/MJzUFfpjI/Rla
D5nRhmmFOPwwrWZFxCCYFilZ
-----END CERTIFICATE-----
