Certificate:
    Data:
        Version: 3 (0x2)
        Serial Number:
            14:c8:c7:f1:f1:6b:91:0b:18:45:4b:c0:65:f2:fc:1f
        Signature Algorithm: sha256WithRSAEncryption
        Issuer: C=US, ST=California, L=Mountain View, O=Test CA, CN=Test Root CA
        Validity
            Not Before: Sep  2 00:00:00 2020 GMT
            Not After : Oct  5 00:00:00 2021 GMT
        Subject: C=US, ST=California, L=Mountain View, O=Test CA, CN=127.0.0.1
        Subject Public Key Info:
            Public Key Algorithm: rsaEncryption
                Public-Key: (2048 bit)
                Modulus:
                    00:d0:cc:3b:8f:a7:31:be:cf:9e:20:47:0c:83:97:
                    ba:f7:d1:e0:2a:b1:4a:20:d2:30:80:e8:cd:48:de:
                    ad:b4:64:63:cd:38:0b:34:9c:e5:aa:87:8f:a8:c3:
                    57:9d:24:a7:a2:bb:64:27:08:b6:2d:dd:24:56:38:
                    ce:af:10:cd:29:b2:c8:ad:39:ab:f9:72:64:49:d1:
                    6f:59:60:cb:a1:c6:b7:8f:ef:73:02:67:ed:fb:68:
                    a9:e5:68:ac:16:6d:f6:20:15:f2:d9:50:d5:5b:29:
                    9e:be:20:44:3b:d0:60:ce:f6:ae:8d:52:ee:14:3b:
                    9b:63:e7:8b:a3:ad:87:96:6e:74:a8:6e:41:d5:09:
                    b0:0f:89:23:d6:1f:14:97:f7:5d:9b:b4:41:20:dd:
                    6a:85:7c:2a:b2:e8:ad:19:e7:68:99:85:5d:a9:e8:
                    34:44:9e:e8:f3:5e:c5:0d:6e:48:ac:69:be:72:7f:
                    44:a2:a0:86:06:6b:dd:c4:a5:d4:46:79:75:dd:64:
                    42:84:76:55:47:f9:f9:be:00:fc:41:78:eb:a9:ad:
                    cc:e4:3a:0a:c2:33:72:0a:5a:1d:e8:fc:6e:4e:69:
                    55:e9:89:99:66:0f:3c:08:2f:23:e6:9f:b1:95:02:
                    3c:33:ec:5a:00:04:f5:23:08:7f:75:ae:1c:43:7b:
                    92:29
                Exponent: 65537 (0x10001)
        X509v3 extensions:
            X509v3 Basic Constraints: critical
                CA:FALSE
            X509v3 Subject Key Identifier: 
                80:D2:6C:20:A5:DD:52:8A:02:26:6D:EE:D0:25:32:DD:58:0B:55:60
            X509v3 Authority Key Identifier: 
                9B:26:0B:8A:98:A9:BB:1D:B9:1F:1C:E3:1A:40:33:ED:8E:17:88:AB
            X509v3 Extended Key Usage: 
                TLS Web Server Authentication, TLS Web Client Authentication
            X509v3 Subject Alternative Name: 
                IP Address:127.0.0.1
    Signature Algorithm: sha256WithRSAEncryption
    Signature Value:
        2c:46:75:62:0e:08:27:77:d8:ff:fc:f9:13:bb:a5:59:97:99:
        18:e2:dc:ee:8f:1a:c0:79:50:6b:67:aa:1e:7f:99:ff:1c:8d:
        ae:b2:2d:75:af:e0:23:14:bd:c8:ee:5b:f5:2b:39:ca:4c:50:
        e3:cb:62:4b:c5:e5:39:8b:92:70:71:b0:5d:8d:16:d8:a9:f0:
        e6:71:0b:df:23:99:29:6b:83:8b:7f:8a:24:97:ff:99:78:43:
        2d:dd:05:1f:ca:e2:48:ca:db:0b:4b:e6:67:2e:63:c5:ad:8f:
        5c:1f:a7:34:c9:7a:86:f4:69:1f:89:33:33:d7:fa:9d:ed:d5:
        10:58:e1:1a:36:88:0c:ff:f0:d2:51:8e:53:81:40:be:4b:d5:
        f7:99:25:dc:69:d6:a2:70:92:a4:26:cf:0a:62:fc:9e:75:14:
        ac:dc:40:54:6f:ef:7b:68:ee:18:25:98:39:80:55:19:ce:63:
        6f:d2:81:0a:79:b8:57:7e:f3:92:45:06:29:84:5f:e5:bc:9e:
        a4:5f:06:6a:7f:f4:c8:b2:cc:76:a8:05:5b:5c:c3:11:c5:62:
        17:9c:1e:45:9c:4e:40:8a:5e:a9:45:90:a4:f6:f8:6a:75:23:
        57:57:80:e0:6d:2e:be:42:c1:75:26:47:f9:8b:27:76:72:8b:
        5d:1a:34:b3
-----BEGIN CERTIFICATE-----
MIIDzjCCAragAwIBAgIQFMjH8fFrkQsYRUvAZfL8HzANBgkqhkiG9w0BAQsFADBj
MQswCQYDVQQGEwJVUzETMBEGA1UECAwKQ2FsaWZvcm5pYTEWMBQGA1UEBwwNTW91
bnRhaW4gVmlldzEQMA4GA1UECgwHVGVzdCBDQTEVMBMGA1UEAwwMVGVzdCBSb290
IENBMB4XDTIwMDkwMjAwMDAwMFoXDTIxMTAwNTAwMDAwMFowYDELMAkGA1UEBhMC
VVMxEzARBgNVBAgMCkNhbGlmb3JuaWExFjAUBgNVBAcMDU1vdW50YWluIFZpZXcx
EDAOBgNVBAoMB1Rlc3QgQ0ExEjAQBgNVBAMMCTEyNy4wLjAuMTCCASIwDQYJKoZI
hvcNAQEBBQADggEPADCCAQoCggEBANDMO4+nMb7PniBHDIOXuvfR4CqxSiDSMIDo
zUjerbRkY804CzSc5aqHj6jDV50kp6K7ZCcIti3dJFY4zq8QzSmyyK05q/lyZEnR
b1lgy6HGt4/vcwJn7ftoqeVorBZt9iAV8tlQ1Vspnr4gRDvQYM72ro1S7hQ7m2Pn
i6Oth5ZudKhuQdUJsA+JI9YfFJf3XZu0QSDdaoV8KrLorRnnaJmFXanoNESe6PNe
xQ1uSKxpvnJ/RKKghgZr3cSl1EZ5dd1kQoR2VUf5+b4A/EF466mtzOQ6CsIzcgpa
Hej8bk5pVemJmWYPPAgvI+afsZUCPDPsWgAE9SMIf3WuHEN7kikCAwEAAaOBgDB+
MAwGA1UdEwEB/wQCMAAwHQYDVR0OBBYEFIDSbCCl3VKKAiZt7tAlMt1YC1VgMB8G
A1UdIwQYMBaAFJsmC4qYqbsduR8c4xpAM+2OF4irMB0GA1UdJQQWMBQGCCsGAQUF
BwMBBggrBgEFBQcDAjAPBgNVHREECDAGhwR/AAABMA0GCSqGSIb3DQEBCwUAA4IB
AQAsRnViDggnd9j//PkTu6VZl5kY4tzujxrAeVBrZ6oef5n/HI2usi11r+AjFL3I
7lv1KznKTFDjy2JLxeU5i5JwcbBdjRbYqfDmcQvfI5kpa4OLf4okl/+ZeEMt3QUf
yuJIytsLS+ZnLmPFrY9cH6c0yXqG9GkfiTMz1/qd7dUQWOEaNogM//DSUY5TgUC+
S9X3mSXcadaicJKkJs8KYvyedRSs3EBUb+97aO4YJZg5gFUZzmNv0oEKebhXfvOS
RQYphF/lvJ6kXwZqf/TIssx2qAVbXMMRxWIXnB5FnE5Ail6pRZCk9vhqdSNXV4Dg
bS6+QsF1Jkf5iyd2cotdGjSz
-----END CERTIFICATE-----
