Certificate:
    Data:
        Version: 3 (0x2)
        Serial Number:
            14:c8:c7:f1:f1:6b:91:0b:18:45:4b:c0:65:f2:fc:20
        Signature Algorithm: sha256WithRSAEncryption
        Issuer: C=US, ST=California, L=Mountain View, O=Test CA, CN=Test Root CA
        Validity
            Not Before: Sep  2 00:00:00 2020 GMT
            Not After : Oct  5 00:00:01 2021 GMT
        Subject: C=US, ST=California, L=Mountain View, O=Test CA, CN=127.0.0.1
        Subject Public Key Info:
            Public Key Algorithm: rsaEncryption
                Public-Key: (2048 bit)
                Modulus:
                    00:d9:78:00:a7:60:3a:27:15:9b:0a:e3:44:8b:d4:
                    0b:94:0c:cc:2d:ff:84:70:9d:bd:f6:51:3f:63:9b:
                    90:43:14:23:02:98:c0:55:d0:3e:49:50:fd:d2:5c:
                    f1:5d:23:70:b0:b9:49:01:61:1e:7f:2e:8e:f8:c0:
                    05:c7:1e:ac:4b:9b:2d:ee:6e:d1:32:98:7e:2d:2d:
                    55:da:62:f9:4a:1c:27:2f:27:33:60:d0:df:e8:77:
                    82:87:01:85:98:06:6f:a0:c2:d2:16:a4:ca:60:29:
                    bc:ce:1a:23:48:e6:39:cf:6a:d6:d2:17:5d:c8:36:
                    25:eb:9f:5b:55:f4:ab:15:e0:be:cc:bf:df:54:f2:
                    6f:59:f1:c9:34:80:cb:06:c9:91:b9:0d:34:d1:77:
                    ba:06:31:df:f0:3c:86:f0:56:48:ef:ce:98:d5:2a:
                    bb:01:98:ae:7a:c4:cd:52:82:37:20:7e:69:b7:09:
                    60:d9:58:bc:a9:42:ef:4b:ef:47:ba:b4:b8:85:a8:
                    e8:11:36:1e:7e:56:2e:2b:6c:fb:0b:3d:90:bc:68:
                    8b:19:ac:8e:b2:9f:80:c3:00:28:ec:95:80:9a:8d:
                    48:ad:e5:13:78:8a:07:b1:af:38:03:fd:62:d4:0e:
                    53:1d:18:12:21:34:50:07:ab:e3:4e:ad:e5:c3:47:
                    ef:33
                Exponent: 65537 (0x10001)
        X509v3 extensions:
            X509v3 Basic Constraints: critical
                CA:FALSE
            X509v3 Subject Key Identifier: 
                4E:CC:E1:18:BD:7B:5B:D9:B0:3E:7C:8C:22:45:44:68:94:29:06:D7
            X509v3 Authority Key Identifier: 
                9B:26:0B:8A:98:A9:BB:1D:B9:1F:1C:E3:1A:40:33:ED:8E:17:88:AB
            X509v3 Extended Key Usage: 
                TLS Web Server Authentication, TLS Web Client Authentication
            X509v3 Subject Alternative Name: 
                IP Address:127.0.0.1
    Signature Algorithm: sha256WithRSAEncryption
    Signature Value:
        5e:8b:23:dc:ef:4b:c9:d2:d6:e6:de:02:34:a0:f9:eb:9f:4d:
        26:f4:2f:1d:20:a7:2c:5f:76:06:5f:8c:f4:50:78:6f:97:f2:
        33:39:ac:d3:96:ba:78:61:dd:f9:8e:39:60:af:48:43:5d:a7:
        95:18:c8:f1:25:ed:a4:87:29:9c:d3:bd:a2:86:07:73:10:bd:
        0c:2a:46:eb:1b:6c:ae:d0:83:c5:a4:80:34:9b:ee:cc:00:3b:
        08:b2:ee:cf:e1:34:1f:b4:cb:2b:4c:8e:2e:64:54:dc:bb:9f:
        8c:3e:6d:16:5b:cf:3f:b3:5b:22:1c:15:6b:74:fb:66:29:66:
        d5:c7:cc:82:bb:5c:db:ed:ca:ee:d5:6f:93:03:c7:f8:67:57:
        3c:ab:51:bf:5b:28:bf:fe:5e:22:81:60:67:d1:85:1e:d4:52:
        6e:53:ae:cc:51:77:8c:0e:89:c5:57:e5:f9:1a:04:c2:7f:12:
        c2:c7:63:e3:e4:00:e2:8e:8e:dc:06:e9:52:e0:54:8c:ca:95:
        d6:7f:3f:e6:4c:20:13:c8:6f:61:ce:3c:0c:6c:3d:86:a3:50:
        b4:e7:d4:2e:fb:bc:75:ea:1e:7a:41:fc:c7:14:2d:69:e2:59:
        74:0b:73:80:6a:f9:37:be:b8:18:e6:35:33:52:58:3e:49:59:
        a1:b9:3a:8d
-----BEGIN CERTIFICATE-----
MIIDzjCCAragAwIBAgIQFMjH8fFrkQsYRUvAZfL8IDANBgkqhkiG9w0BAQsFADBj
MQswCQYDVQQGEwJVUzETMBEGA1UECAwKQ2FsaWZvcm5pYTEWMBQGA1UEBwwNTW91
bnRhaW4gVmlldzEQMA4GA1UECgwHVGVzdCBDQTEVMBMGA1UEAwwMVGVzdCBSb290
IENBMB4XDTIwMDkwMjAwMDAwMFoXDTIxMTAwNTAwMDAwMVowYDELMAkGA1UEBhMC
VVMxEzARBgNVBAgMCkNhbGlmb3JuaWExFjAUBgNVBAcMDU1vdW50YWluIFZpZXcx
EDAOBgNVBAoMB1Rlc3QgQ0ExEjAQBgNVBAMMCTEyNy4wLjAuMTCCASIwDQYJKoZI
hvcNAQEBBQADggEPADCCAQoCggEBANl4AKdgOicVmwrjRIvUC5QMzC3/hHCdvfZR
P2ObkEMUIwKYwFXQPklQ/dJc8V0jcLC5SQFhHn8ujvjABccerEubLe5u0TKYfi0t
Vdpi+UocJy8nM2DQ3+h3gocBhZgGb6DC0hakymApvM4aI0jmOc9q1tIXXcg2Jeuf
W1X0qxXgvsy/31Tyb1nxyTSAywbJkbkNNNF3ugYx3/A8hvBWSO/OmNUquwGYrnrE
zVKCNyB+abcJYNlYvKlC70vvR7q0uIWo6BE2Hn5WLits+ws9kLxoixmsjrKfgMMA
KOyVgJqNSK3lE3iKB7GvOAP9YtQOUx0YEiE0UAer406t5cNH7zMCAwEAAaOBgDB+
MAwGA1UdEwEB/wQCMAAwHQYDVR0OBBYEFE7M4Ri9e1vZsD58jCJFRGiUKQbXMB8G
A1UdIwQYMBaAFJsmC4qYqbsduR8c4xpAM+2OF4irMB0GA1UdJQQWMBQGCCsGAQUF
BwMBBggrBgEFBQcDAjAPBgNVHREECDAGhwR/AAABMA0GCSqGSIb3DQEBCwUAA4IB
AQBeiyPc70vJ0tbm3gI0oPnrn00m9C8dIKcsX3YGX4z0UHhvl/IzOazTlrp4Yd35
jjlgr0hDXaeVGMjxJe2khymc072ihgdzEL0MKkbrG2yu0IPFpIA0m+7MADsIsu7P
4TQftMsrTI4uZFTcu5+MPm0WW88/s1siHBVrdPtmKWbVx8yCu1zb7cru1W+TA8f4
Z1c8q1G/Wyi//l4igWBn0YUe1FJuU67MUXeMDonFV+X5GgTCfxLCx2Pj5ADijo7c
BulS4FSMypXWfz/mTCATyG9hzjwMbD2Go1C059Qu+7x16h56QfzHFC1p4ll0C3OA
avk3vrgY5jUzUlg+SVmhuTqN
-----END CERTIFICATE-----
