Certificate:
    Data:
        Version: 3 (0x2)
        Serial Number:
            14:c8:c7:f1:f1:6b:91:0b:18:45:4b:c0:65:f2:fc:1e
        Signature Algorithm: sha256WithRSAEncryption
        Issuer: C=US, ST=California, L=Mountain View, O=Test CA, CN=Test Root CA
        Validity
            Not Before: Sep  2 00:00:00 2020 GMT
            Not After : Oct  6 00:00:00 2021 GMT
        Subject: C=US, ST=California, L=Mountain View, O=Test CA, CN=127.0.0.1
        Subject Public Key Info:
            Public Key Algorithm: rsaEncryption
                Public-Key: (2048 bit)
                Modulus:
                    00:d9:25:72:f2:8d:3f:af:cf:aa:40:ba:68:fb:5d:
                    cf:f2:4b:d4:af:52:18:14:bc:71:59:5e:09:83:d6:
                    54:9b:da:7a:ad:80:18:9d:f5:4c:88:a9:ca:45:d9:
                    1e:79:ff:dc:c1:cd:8e:3a:8b:69:33:ca:20:0a:b4:
                    65:ac:1c:9d:f9:4f:3f:c8:37:5d:c5:06:61:f9:99:
                    1e:4b:eb:81:a2:4e:17:6b:ff:69:7f:35:68:e3:a8:
                    65:ba:35:93:b9:d2:26:d1:2e:ef:08:22:32:4f:81:
                    63:9c:fd:63:41:3f:0e:42:fd:56:c8:74:51:f8:41:
                    8d:1b:6e:65:4d:39:2c:b3:ea:fe:37:dd:b6:1a:31:
                    5e:14:cd:50:20:27:41:4f:2f:45:22:df:52:48:87:
                    f6:03:ab:c9:bb:f4:cd:85:53:36:95:c7:f5:96:93:
                    ec:a8:4c:98:a6:1e:3d:19:5b:7b:11:1b:44:0e:75:
                    ac:ab:59:4d:34:5a:e4:8b:16:67:97:a5:0a:13:98:
                    29:21:9f:b3:59:82:a2:00:66:f6:8b:3d:2d:04:d4:
                    ec:71:27:99:89:08:ac:ee:14:00:b3:6f:52:3a:0b:
                    b6:e9:d4:8d:68:fe:db:66:be:f7:ab:f4:f1:bd:83:
                    77:69:47:97:f7:f7:01:68:9e:30:52:d2:1f:97:4f:
                    95:f1
                Exponent: 65537 (0x10001)
        X509v3 extensions:
            X509v3 Basic Constraints: critical
                CA:FALSE
            X509v3 Subject Key Identifier: 
                DA:A3:13:9A:29:37:98:FE:21:E7:E2:10:06:03:3A:AC:EF:9E:51:25
            X509v3 Authority Key Identifier: 
                9B:26:0B:8A:98:A9:BB:1D:B9:1F:1C:E3:1A:40:33:ED:8E:17:88:AB
            X509v3 Extended Key Usage: 
                TLS Web Server Authentication, TLS Web Client Authentication
            X509v3 Subject Alternative Name: 
                IP Address:127.0.0.1
    Signature Algorithm: sha256WithRSAEncryption
    Signature Value:
        44:33:90:e2:c8:b9:ac:0d:e6:6b:b0:04:64:8f:4e:c4:ff:89:
        3c:ef:83:f8:50:f8:03:51:4f:6b:ef:5a:2c:f3:f2:62:97:45:
        6e:13:bc:f8:97:6a:07:60:c4:91:89:ba:11:1b:8f:31:47:7b:
        7d:18:65:67:3c:c1:28:dc:b8:db:0f:6e:5d:6b:f1:0f:6e:84:
        27:c5:6e:fb:5d:60:d4:36:11:48:d5:52:f9:d7:2b:3b:54:22:
        e0:0f:2a:6b:c0:ba:8f:34:74:98:0c:4b:97:b6:93:0b:04:c3:
        c0:b4:51:6b:57:fa:89:2f:5b:bc:7c:9e:c5:31:71:6f:22:06:
        5c:90:e1:c3:b9:1f:d7:87:35:1a:80:77:c2:6d:00:11:37:32:
        6d:10:56:3c:ab:61:13:14:98:cc:80:27:54:ba:98:7d:79:59:
        90:c9:21:2d:b2:a4:cb:9d:71:b2:55:16:8b:66:0d:61:3f:1f:
        eb:43:78:58:c8:93:31:31:33:17:f2:e7:35:5d:d7:91:83:17:
        ec:90:54:a6:86:37:06:9b:9c:d5:66:b5:b8:67:69:58:0d:17:
        40:69:cb:50:46:96:a7:af:c5:46:29:4a:ed:72:80:3b:53:1f:
        79:69:cb:f7:d1:99:b0:71:3c:2a:5b:bb:36:2e:53:b1:ec:a0:
        b9:5d:83:5a
-----BEGIN CERTIFICATE-----
MIIDzjCCAragAwIBAgIQFMjH8fFrkQsYRUvAZfL8HjANBgkqhkiG9w0BAQsFADBj
MQswCQYDVQQGEwJVUzETMBEGA1UECAwKQ2FsaWZvcm5pYTEWMBQGA1UEBwwNTW91
bnRhaW4gVmlldzEQMA4GA1UECgwHVGVzdCBDQTEVMBMGA1UEAwwMVGVzdCBSb290
IENBMB4XDTIwMDkwMjAwMDAwMFoXDTIxMTAwNjAwMDAwMFowYDELMAkGA1UEBhMC
VVMxEzARBgNVBAgMCkNhbGlmb3JuaWExFjAUBgNVBAcMDU1vdW50YWluIFZpZXcx
EDAOBgNVBAoMB1Rlc3QgQ0ExEjAQBgNVBAMMCTEyNy4wLjAuMTCCASIwDQYJKoZI
hvcNAQEBBQADggEPADCCAQoCggEBANklcvKNP6/PqkC6aPtdz/JL1K9SGBS8cVle
CYPWVJvaeq2AGJ31TIipykXZHnn/3MHNjjqLaTPKIAq0ZawcnflPP8g3XcUGYfmZ
HkvrgaJOF2v/aX81aOOoZbo1k7nSJtEu7wgiMk+BY5z9Y0E/DkL9Vsh0UfhBjRtu
ZU05LLPq/jfdthoxXhTNUCAnQU8vRSLfUkiH9gOrybv0zYVTNpXH9ZaT7KhMmKYe
PRlbexEbRA51rKtZTTRa5IsWZ5elChOYKSGfs1mCogBm9os9LQTU7HEnmYkIrO4U
ALNvUjoLtunUjWj+22a+96v08b2Dd2lHl/f3AWieMFLSH5dPlfECAwEAAaOBgDB+
MAwGA1UdEwEB/wQCMAAwHQYDVR0OBBYEFNqjE5opN5j+IefiEAYDOqzvnlElMB8G
A1UdIwQYMBaAFJsmC4qYqbsduR8c4xpAM+2OF4irMB0GA1UdJQQWMBQGCCsGAQUF
BwMBBggrBgEFBQcDAjAPBgNVHREECDAGhwR/AAABMA0GCSqGSIb3DQEBCwUAA4IB
AQBEM5DiyLmsDeZrsARkj07E/4k874P4UPgDUU9r71os8/Jil0VuE7z4l2oHYMSR
iboRG48xR3t9GGVnPMEo3LjbD25da/EPboQnxW77XWDUNhFI1VL51ys7VCLgDypr
wLqPNHSYDEuXtpMLBMPAtFFrV/qJL1u8fJ7FMXFvIgZckOHDuR/XhzUagHfCbQAR
NzJtEFY8q2ETFJjMgCdUuph9eVmQySEtsqTLnXGyVRaLZg1hPx/rQ3hYyJMxMTMX
8uc1XdeRgxfskFSmhjcGm5zVZrW4Z2lYDRdAactQRpanr8VGKUrtcoA7Ux95acv3
0ZmwcTwqW7s2LlOx7KC5XYNa
-----END CERTIFICATE-----
