Certificate:
    Data:
        Version: 3 (0x2)
        Serial Number:
            14:c8:c7:f1:f1:6b:91:0b:18:45:4b:c0:65:f2:fc:11
        Signature Algorithm: sha256WithRSAEncryption
        Issuer: C=US, ST=California, L=Mountain View, O=Test CA, CN=Test Root CA
        Validity
            Not Before: Apr  2 00:00:00 2015 GMT
            Not After : Jul  2 00:00:00 2018 GMT
        Subject: C=US, ST=California, L=Mountain View, O=Test CA, CN=127.0.0.1
        Subject Public Key Info:
            Public Key Algorithm: rsaEncryption
                Public-Key: (2048 bit)
                Modulus:
                    00:cc:75:fd:f6:66:a3:ea:f8:4d:0c:e9:fc:b3:83:
                    7a:aa:8b:89:0c:4a:49:9e:c8:02:db:68:29:48:db:
                    15:60:0c:3f:63:03:00:22:c5:6c:aa:22:c3:05:0c:
                    c6:64:6d:91:3d:20:81:97:f4:ee:50:d1:ee:1c:74:
                    4b:db:df:40:04:b6:1b:95:09:03:e3:90:66:c8:6d:
                    c3:6e:2c:96:ca:62:f8:49:be:11:09:5c:2c:66:75:
                    ca:b7:e9:1f:1f:c1:65:d0:0d:8a:56:b3:aa:eb:76:
                    ec:f5:0b:4d:e2:3d:97:29:0d:65:42:eb:66:35:be:
                    14:ad:bb:1e:c3:05:d4:a5:b3:f9:65:bf:12:3f:bc:
                    37:de:d9:6b:76:b7:51:7a:3d:c8:b9:0b:7f:89:a2:
                    01:0a:96:01:c2:ae:8b:aa:c0:4f:9a:94:4c:d1:ce:
                    ac:14:e0:c9:8b:11:f5:7b:51:87:85:41:74:83:4d:
                    4f:c4:26:d3:1a:1f:9c:12:bc:d0:95:63:a2:9f:7d:
                    40:66:8a:d4:69:8f:25:c7:94:32:8d:22:74:93:8a:
                    9f:8e:c0:df:5e:cf:97:44:f4:60:2e:c0:a5:a4:75:
                    f6:ac:9b:82:30:e2:48:ea:70:a3:2e:06:5a:f9:e0:
                    92:c4:5e:80:43:eb:54:93:27:8b:66:78:86:a2:f9:
                    b6:1b
                Exponent: 65537 (0x10001)
        X509v3 extensions:
            X509v3 Basic Constraints: critical
                CA:FALSE
            X509v3 Subject Key Identifier: 
                35:F0:50:70:03:28:AB:32:64:3D:FF:96:6E:A1:20:6D:32:89:50:FA
            X509v3 Authority Key Identifier: 
                9B:26:0B:8A:98:A9:BB:1D:B9:1F:1C:E3:1A:40:33:ED:8E:17:88:AB
            X509v3 Extended Key Usage: 
                TLS Web Server Authentication, TLS Web Client Authentication
            X509v3 Subject Alternative Name: 
                IP Address:127.0.0.1
    Signature Algorithm: sha256WithRSAEncryption
    Signature Value:
        37:5c:74:de:58:82:d1:27:01:20:06:9b:96:66:94:17:e7:36:
        be:c9:c0:20:1b:f4:fe:6e:42:9e:26:af:48:9d:5d:37:fb:e3:
        5b:32:93:22:c2:d5:e4:7b:2d:c7:bc:bc:49:cc:89:5c:9b:88:
        e4:16:59:d9:d6:96:5e:c0:1d:bb:8e:f6:c2:dd:75:33:4d:51:
        ae:5f:e4:f6:69:57:fb:98:32:c1:95:ea:59:14:a3:bd:3b:79:
        f9:9c:33:08:e8:15:ac:14:3b:20:86:77:b5:98:96:f2:a4:60:
        f1:6c:32:4d:86:51:41:97:64:36:06:a0:c7:96:ac:0f:cd:ff:
        b4:28:b3:4d:d4:ec:d6:65:98:d1:68:e8:fc:a8:d2:46:0d:37:
        70:01:c6:c5:94:e0:0b:74:7f:39:d7:e6:0b:e6:6e:57:9e:7a:
        87:bf:5c:72:98:63:d9:d6:df:2b:15:c7:6e:4a:ce:f0:36:0e:
        8a:d4:c0:e6:9a:16:fb:f2:63:44:db:2c:05:a8:10:e5:ba:46:
        f8:66:e3:7b:ac:e0:30:bb:ab:f7:7a:e8:c1:f9:65:8c:f0:07:
        cb:94:b0:1c:e5:71:63:f1:70:b8:f6:4b:b4:a6:f2:2e:e5:5d:
        ee:49:74:11:22:8a:5f:25:14:92:7f:f4:5a:36:38:5a:d5:ba:
        b1:25:fd:88
-----BEGIN CERTIFICATE-----
MIIDzjCCAragAwIBAgIQFMjH8fFrkQsYRUvAZfL8ETANBgkqhkiG9w0BAQsFADBj
MQswCQYDVQQGEwJVUzETMBEGA1UECAwKQ2FsaWZvcm5pYTEWMBQGA1UEBwwNTW91
bnRhaW4gVmlldzEQMA4GA1UECgwHVGVzdCBDQTEVMBMGA1UEAwwMVGVzdCBSb290
IENBMB4XDTE1MDQwMjAwMDAwMFoXDTE4MDcwMjAwMDAwMFowYDELMAkGA1UEBhMC
VVMxEzARBgNVBAgMCkNhbGlmb3JuaWExFjAUBgNVBAcMDU1vdW50YWluIFZpZXcx
EDAOBgNVBAoMB1Rlc3QgQ0ExEjAQBgNVBAMMCTEyNy4wLjAuMTCCASIwDQYJKoZI
hvcNAQEBBQADggEPADCCAQoCggEBAMx1/fZmo+r4TQzp/LODeqqLiQxKSZ7IAtto
KUjbFWAMP2MDACLFbKoiwwUMxmRtkT0ggZf07lDR7hx0S9vfQAS2G5UJA+OQZsht
w24slspi+Em+EQlcLGZ1yrfpHx/BZdANilazqut27PULTeI9lykNZULrZjW+FK27
HsMF1KWz+WW/Ej+8N97Za3a3UXo9yLkLf4miAQqWAcKui6rAT5qUTNHOrBTgyYsR
9XtRh4VBdINNT8Qm0xofnBK80JVjop99QGaK1GmPJceUMo0idJOKn47A317Pl0T0
YC7ApaR19qybgjDiSOpwoy4GWvngksRegEPrVJMni2Z4hqL5thsCAwEAAaOBgDB+
MAwGA1UdEwEB/wQCMAAwHQYDVR0OBBYEFDXwUHADKKsyZD3/lm6hIG0yiVD6MB8G
A1UdIwQYMBaAFJsmC4qYqbsduR8c4xpAM+2OF4irMB0GA1UdJQQWMBQGCCsGAQUF
BwMBBggrBgEFBQcDAjAPBgNVHREECDAGhwR/AAABMA0GCSqGSIb3DQEBCwUAA4IB
AQA3XHTeWILRJwEgBpuWZpQX5za+ycAgG/T+bkKeJq9InV03++NbMpMiwtXkey3H
vLxJzIlcm4jkFlnZ1pZewB27jvbC3XUzTVGuX+T2aVf7mDLBlepZFKO9O3n5nDMI
6BWsFDsghne1mJbypGDxbDJNhlFBl2Q2BqDHlqwPzf+0KLNN1OzWZZjRaOj8qNJG
DTdwAcbFlOALdH851+YL5m5XnnqHv1xymGPZ1t8rFcduSs7wNg6K1MDmmhb78mNE
2ywFqBDlukb4ZuN7rOAwu6v3eujB+WWM8AfLlLAc5XFj8XC49ku0pvIu5V3uSXQR
IopfJRSSf/RaNjha1bqxJf2I
-----END CERTIFICATE-----
