Certificate:
    Data:
        Version: 3 (0x2)
        Serial Number:
            14:c8:c7:f1:f1:6b:91:0b:18:45:4b:c0:65:f2:fc:15
        Signature Algorithm: sha256WithRSAEncryption
        Issuer: C=US, ST=California, L=Mountain View, O=Test CA, CN=Test Root CA
        Validity
            Not Before: Feb 28 00:00:00 2017 GMT
            Not After : May 30 00:00:00 2020 GMT
        Subject: C=US, ST=California, L=Mountain View, O=Test CA, CN=127.0.0.1
        Subject Public Key Info:
            Public Key Algorithm: rsaEncryption
                Public-Key: (2048 bit)
                Modulus:
                    00:d4:27:9a:3b:66:39:77:53:e7:aa:d8:c3:97:f7:
                    05:d1:f0:4b:68:2e:9c:9e:e9:e4:64:ed:b4:75:95:
                    61:bd:2f:43:fe:65:a2:bf:0e:38:1b:1d:d5:8e:e6:
                    41:17:80:8a:7e:77:bb:11:38:cd:52:0a:f0:52:7d:
                    e8:14:0f:77:2b:4e:de:3c:d8:60:32:b3:52:7f:c0:
                    e1:5e:04:92:58:62:9d:c2:be:9b:6c:df:ce:40:b2:
                    c5:cb:e8:2e:b8:61:c5:be:9a:0a:2d:67:bd:2e:4f:
                    92:a8:c0:f2:e8:d1:ef:75:c7:34:08:6f:39:ce:9a:
                    68:ca:0f:73:3e:26:06:b7:76:e5:1e:ca:b5:74:fa:
                    9a:97:0e:70:99:fb:7e:28:b8:d0:7a:d2:d3:95:2b:
                    04:78:b6:9b:12:84:9d:a7:b9:d9:d1:63:c9:34:d5:
                    cb:42:62:ab:1f:75:80:a7:66:3f:0a:0a:bf:14:45:
                    99:cf:07:44:4d:ba:db:8a:da:a6:a5:fe:35:a1:ef:
                    ce:27:49:a9:6c:df:24:05:c3:d1:2e:d0:b8:b3:f7:
                    25:b9:fc:d9:94:0c:21:81:83:19:54:2a:8f:5e:d4:
                    56:b8:2b:c3:49:4d:99:87:26:48:c0:0c:f4:22:37:
                    11:70:34:27:95:59:cb:7b:5c:30:fa:6a:86:2f:25:
                    6d:ff
                Exponent: 65537 (0x10001)
        X509v3 extensions:
            X509v3 Basic Constraints: critical
                CA:FALSE
            X509v3 Subject Key Identifier: 
                4C:2B:DF:11:5E:27:B8:15:97:21:99:2F:28:9D:FB:F2:09:BD:63:B9
            X509v3 Authority Key Identifier: 
                9B:26:0B:8A:98:A9:BB:1D:B9:1F:1C:E3:1A:40:33:ED:8E:17:88:AB
            X509v3 Extended Key Usage: 
                TLS Web Server Authentication, TLS Web Client Authentication
            X509v3 Subject Alternative Name: 
                IP Address:127.0.0.1
    Signature Algorithm: sha256WithRSAEncryption
    Signature Value:
        59:78:69:66:01:47:e7:04:5f:cf:d3:a6:73:66:1f:1d:4f:2f:
        63:85:c4:3d:a4:a7:0b:5e:07:86:68:52:52:ba:30:e3:be:ee:
        e5:31:9d:84:9c:ff:aa:ac:2c:91:75:dd:05:5f:11:23:13:ff:
        81:67:8d:4f:ff:59:e5:e4:23:86:18:43:87:90:d5:b8:3a:94:
        33:c4:36:2f:35:f4:0f:3a:70:5a:18:b6:f5:19:8c:b5:16:f0:
        7c:49:d9:ee:ad:d5:77:2e:83:6d:63:34:80:b2:35:f7:1e:b2:
        b1:b5:d5:4e:68:dd:2b:7f:fb:dc:b2:cb:23:1c:d0:51:c4:11:
        a3:06:62:ee:57:b8:b2:f0:8f:7b:48:8a:21:18:a0:bc:9d:37:
        d8:6a:aa:dc:61:4b:0c:62:90:3e:1b:fa:b6:e3:d7:0e:54:76:
        ad:8f:41:42:f1:62:cc:f9:5a:c4:ff:c5:12:55:03:5a:08:d1:
        7f:0d:92:7a:45:2e:b3:39:05:bd:79:d1:55:c8:8c:25:db:0c:
        ed:b4:8c:35:91:a6:19:c8:36:3f:e9:84:54:f2:1c:72:c5:81:
        e5:39:d7:09:4f:c6:93:ec:e2:04:72:fa:0f:99:07:4e:3d:65:
        87:cf:0d:96:57:27:80:e4:a5:07:cb:0c:17:56:3b:a2:7b:5f:
        14:4e:e4:7c
-----BEGIN CERTIFICATE-----
MIIDzjCCAragAwIBAgIQFMjH8fFrkQsYRUvAZfL8FTANBgkqhkiG9w0BAQsFADBj
MQswCQYDVQQGEwJVUzETMBEGA1UECAwKQ2FsaWZvcm5pYTEWMBQGA1UEBwwNTW91
bnRhaW4gVmlldzEQMA4GA1UECgwHVGVzdCBDQTEVMBMGA1UEAwwMVGVzdCBSb290
IENBMB4XDTE3MDIyODAwMDAwMFoXDTIwMDUzMDAwMDAwMFowYDELMAkGA1UEBhMC
VVMxEzARBgNVBAgMCkNhbGlmb3JuaWExFjAUBgNVBAcMDU1vdW50YWluIFZpZXcx
EDAOBgNVBAoMB1Rlc3QgQ0ExEjAQBgNVBAMMCTEyNy4wLjAuMTCCASIwDQYJKoZI
hvcNAQEBBQADggEPADCCAQoCggEBANQnmjtmOXdT56rYw5f3BdHwS2gunJ7p5GTt
tHWVYb0vQ/5lor8OOBsd1Y7mQReAin53uxE4zVIK8FJ96BQPdytO3jzYYDKzUn/A
4V4EklhincK+m2zfzkCyxcvoLrhhxb6aCi1nvS5PkqjA8ujR73XHNAhvOc6aaMoP
cz4mBrd25R7KtXT6mpcOcJn7fii40HrS05UrBHi2mxKEnae52dFjyTTVy0Jiqx91
gKdmPwoKvxRFmc8HRE2624rapqX+NaHvzidJqWzfJAXD0S7QuLP3Jbn82ZQMIYGD
GVQqj17UVrgrw0lNmYcmSMAM9CI3EXA0J5VZy3tcMPpqhi8lbf8CAwEAAaOBgDB+
MAwGA1UdEwEB/wQCMAAwHQYDVR0OBBYEFEwr3xFeJ7gVlyGZLyid+/IJvWO5MB8G
A1UdIwQYMBaAFJsmC4qYqbsduR8c4xpAM+2OF4irMB0GA1UdJQQWMBQGCCsGAQUF
BwMBBggrBgEFBQcDAjAPBgNVHREECDAGhwR/AAABMA0GCSqGSIb3DQEBCwUAA4IB
AQBZeGlmAUfnBF/P06ZzZh8dTy9jhcQ9pKcLXgeGaFJSujDjvu7lMZ2EnP+qrCyR
dd0FXxEjE/+BZ41P/1nl5COGGEOHkNW4OpQzxDYvNfQPOnBaGLb1GYy1FvB8Sdnu
rdV3LoNtYzSAsjX3HrKxtdVOaN0rf/vcsssjHNBRxBGjBmLuV7iy8I97SIohGKC8
nTfYaqrcYUsMYpA+G/q249cOVHatj0FC8WLM+VrE/8USVQNaCNF/DZJ6RS6zOQW9
edFVyIwl2wzttIw1kaYZyDY/6YRU8hxyxYHlOdcJT8aT7OIEcvoPmQdOPWWHzw2W
VyeA5KUHywwXVjuie18UTuR8
-----END CERTIFICATE-----
