Certificate:
    Data:
        Version: 3 (0x2)
        Serial Number:
            14:c8:c7:f1:f1:6b:91:0b:18:45:4b:c0:65:f2:fc:12
        Signature Algorithm: sha256WithRSAEncryption
        Issuer: C=US, ST=California, L=Mountain View, O=Test CA, CN=Test Root CA
        Validity
            Not Before: Apr  2 00:00:00 2015 GMT
            Not After : Aug  1 00:00:00 2018 GMT
        Subject: C=US, ST=California, L=Mountain View, O=Test CA, CN=127.0.0.1
        Subject Public Key Info:
            Public Key Algorithm: rsaEncryption
                Public-Key: (2048 bit)
                Modulus:
                    00:a0:4b:47:37:81:25:0d:19:fc:24:70:f0:e4:62:
                    ab:d8:91:e9:3e:4a:51:78:c5:f9:3c:f8:17:18:d2:
                    7d:5a:84:ba:f9:9c:f6:dc:8d:bc:ab:00:8d:93:91:
                    24:3f:cc:a6:ee:0f:69:b9:a1:36:3e:16:44:4e:10:
                    7c:bd:85:fd:33:c1:55:c7:c0:dd:55:0d:04:e7:27:
                    6b:e3:63:92:dc:fe:23:c6:34:8d:ea:32:08:a5:66:
                    ea:d4:72:cf:5c:ac:73:53:1b:35:eb:20:d9:12:63:
                    7b:23:fb:93:df:bb:67:8b:31:06:b8:96:44:91:a2:
                    c6:22:6a:9d:a7:52:44:59:30:8d:fa:04:78:dc:1d:
                    04:fb:2d:43:2e:b5:c0:b9:7b:f6:09:2d:5e:cf:c6:
                    80:c9:6b:96:cf:c4:8a:eb:a5:b4:f5:e9:a8:3b:71:
                    da:65:30:ba:49:05:f9:fc:50:eb:7d:ef:54:3d:6b:
                    5a:d0:4a:2e:e2:e5:86:47:aa:55:91:41:61:95:f5:
                    32:c2:0e:4f:d2:e6:b0:79:7e:94:bb:ec:01:ba:a8:
                    aa:aa:b1:e0:ea:87:1c:2d:c6:80:e2:ad:30:e3:ec:
                    3c:1e:58:44:ab:32:70:6a:82:de:3e:75:08:b1:64:
                    bc:e1:6f:17:f5:35:25:50:87:c4:18:5a:f5:7d:98:
                    67:65
                Exponent: 65537 (0x10001)
        X509v3 extensions:
            X509v3 Basic Constraints: critical
                CA:FALSE
            X509v3 Subject Key Identifier: 
                33:92:E5:73:79:02:1C:FE:C3:A5:E9:DF:91:6B:D1:CC:2B:66:D7:83
            X509v3 Authority Key Identifier: 
                9B:26:0B:8A:98:A9:BB:1D:B9:1F:1C:E3:1A:40:33:ED:8E:17:88:AB
            X509v3 Extended Key Usage: 
                TLS Web Server Authentication, TLS Web Client Authentication
            X509v3 Subject Alternative Name: 
                IP Address:127.0.0.1
    Signature Algorithm: sha256WithRSAEncryption
    Signature Value:
        42:c7:5f:66:eb:a0:34:38:a7:26:e8:b0:63:59:13:08:72:b1:
        4f:fa:03:30:55:7c:34:2c:ea:bf:30:95:c9:2b:81:37:92:b8:
        10:21:3f:3d:36:ba:6e:f9:b7:82:33:4e:5b:5a:90:fb:95:51:
        09:43:a2:23:9f:e7:df:a0:19:5e:2f:cd:8b:88:6f:e2:83:51:
        ff:1a:b4:7d:02:91:cb:5f:5c:fd:c7:9b:13:60:4e:c3:1b:d5:
        37:84:03:7e:54:68:13:f6:af:7e:e4:4a:43:b4:f6:0c:5d:32:
        11:fe:a1:0b:4b:6a:8d:08:53:bb:4e:9d:a0:b3:e9:33:ec:81:
        59:9e:7c:70:6d:66:67:39:c1:1f:b2:d5:d8:ad:50:19:8b:e0:
        a8:99:8d:f9:ba:64:24:7b:10:f9:ab:d6:55:3d:bd:e0:6f:86:
        eb:37:3c:b1:c6:01:4c:74:c0:b3:e6:6c:da:12:18:6f:ae:15:
        3b:b8:50:b6:1c:b8:67:bc:33:fc:3f:2f:bf:68:4b:f9:b2:53:
        57:95:e6:5d:90:e6:73:48:12:d0:df:8d:b3:bc:c8:63:51:37:
        31:6a:93:ce:34:76:ab:80:97:a8:1e:f2:34:f2:6a:49:9d:ab:
        2d:f3:f3:46:07:97:af:92:c9:55:1a:64:02:47:da:d2:d7:b5:
        7f:f6:dc:37
-----BEGIN CERTIFICATE-----
MIIDzjCCAragAwIBAgIQFMjH8fFrkQsYRUvAZfL8EjANBgkqhkiG9w0BAQsFADBj
MQswCQYDVQQGEwJVUzETMBEGA1UECAwKQ2FsaWZvcm5pYTEWMBQGA1UEBwwNTW91
bnRhaW4gVmlldzEQMA4GA1UECgwHVGVzdCBDQTEVMBMGA1UEAwwMVGVzdCBSb290
IENBMB4XDTE1MDQwMjAwMDAwMFoXDTE4MDgwMTAwMDAwMFowYDELMAkGA1UEBhMC
VVMxEzARBgNVBAgMCkNhbGlmb3JuaWExFjAUBgNVBAcMDU1vdW50YWluIFZpZXcx
EDAOBgNVBAoMB1Rlc3QgQ0ExEjAQBgNVBAMMCTEyNy4wLjAuMTCCASIwDQYJKoZI
hvcNAQEBBQADggEPADCCAQoCggEBAKBLRzeBJQ0Z/CRw8ORiq9iR6T5KUXjF+Tz4
FxjSfVqEuvmc9tyNvKsAjZORJD/Mpu4PabmhNj4WRE4QfL2F/TPBVcfA3VUNBOcn
a+Njktz+I8Y0jeoyCKVm6tRyz1ysc1MbNesg2RJjeyP7k9+7Z4sxBriWRJGixiJq
nadSRFkwjfoEeNwdBPstQy61wLl79gktXs/GgMlrls/EiuultPXpqDtx2mUwukkF
+fxQ633vVD1rWtBKLuLlhkeqVZFBYZX1MsIOT9LmsHl+lLvsAbqoqqqx4OqHHC3G
gOKtMOPsPB5YRKsycGqC3j51CLFkvOFvF/U1JVCHxBha9X2YZ2UCAwEAAaOBgDB+
MAwGA1UdEwEB/wQCMAAwHQYDVR0OBBYEFDOS5XN5Ahz+w6Xp35Fr0cwrZteDMB8G
A1UdIwQYMBaAFJsmC4qYqbsduR8c4xpAM+2OF4irMB0GA1UdJQQWMBQGCCsGAQUF
BwMBBggrBgEFBQcDAjAPBgNVHREECDAGhwR/AAABMA0GCSqGSIb3DQEBCwUAA4IB
AQBCx19m66A0OKcm6LBjWRMIcrFP+gMwVXw0LOq/MJXJK4E3krgQIT89Nrpu+beC
M05bWpD7lVEJQ6Ijn+ffoBleL82LiG/ig1H/GrR9ApHLX1z9x5sTYE7DG9U3hAN+
VGgT9q9+5EpDtPYMXTIR/qELS2qNCFO7Tp2gs+kz7IFZnnxwbWZnOcEfstXYrVAZ
i+ComY35umQkexD5q9ZVPb3gb4brNzyxxgFMdMCz5mzaEhhvrhU7uFC2HLhnvDP8
Py+/aEv5slNXleZdkOZzSBLQ342zvMhjUTcxapPONHargJeoHvI08mpJnast8/NG
B5evkslVGmQCR9rS17V/9tw3
-----END CERTIFICATE-----
