Certificate:
    Data:
        Version: 3 (0x2)
        Serial Number:
            14:c8:c7:f1:f1:6b:91:0b:18:45:4b:c0:65:f2:fc:13
        Signature Algorithm: sha256WithRSAEncryption
        Issuer: C=US, ST=California, L=Mountain View, O=Test CA, CN=Test Root CA
        Validity
            Not Before: Oct 30 00:00:00 2014 GMT
            Not After : Sep 30 00:00:00 2019 GMT
        Subject: C=US, ST=California, L=Mountain View, O=Test CA, CN=127.0.0.1
        Subject Public Key Info:
            Public Key Algorithm: rsaEncryption
                Public-Key: (2048 bit)
                Modulus:
                    00:cb:a9:41:07:e9:cd:06:0b:41:4a:ac:ef:20:13:
                    99:ae:10:2a:00:ed:07:71:a0:2b:50:67:99:aa:22:
                    b0:13:d0:bb:66:ec:87:32:28:2b:71:f0:8d:38:fd:
                    23:8d:a5:d4:dc:bf:77:15:c0:f3:ff:cb:5d:a9:55:
                    0c:0b:37:ad:60:ce:0a:5c:4c:24:3e:50:d3:78:a0:
                    c0:ab:8f:b3:85:42:01:9f:43:80:e0:f6:bc:c0:54:
                    6d:f4:f8:93:48:b6:9b:9e:c5:00:5b:3b:d9:10:59:
                    e1:fe:a9:56:62:cf:7a:d3:77:ce:4e:c8:9d:13:4b:
                    5c:6d:09:44:11:10:f5:f5:c5:1b:53:96:4f:cd:07:
                    4e:d9:b9:44:58:e6:8e:31:c4:f5:e1:52:83:66:61:
                    fe:2b:b6:48:73:73:60:d7:74:f3:e9:36:ae:5f:e0:
                    19:f3:43:fa:bb:1e:91:ed:f4:ff:3e:cb:0a:f0:3b:
                    6a:0c:da:f6:85:38:e7:84:51:ac:0a:19:67:03:09:
                    b0:52:2d:1f:64:0c:3c:85:55:a6:90:03:9d:f8:40:
                    b9:aa:f4:92:2d:ee:25:f2:88:a7:12:d1:27:a0:c2:
                    63:f0:0b:b3:99:7a:95:39:75:20:19:04:cc:81:b5:
                    c1:18:59:17:94:82:e4:53:6f:59:09:49:6a:a1:49:
                    a0:09
                Exponent: 65537 (0x10001)
        X509v3 extensions:
            X509v3 Basic Constraints: critical
                CA:FALSE
            X509v3 Subject Key Identifier: 
                DE:EB:1E:C3:F5:8E:FF:B1:1E:2C:D6:02:94:15:00:6F:85:AF:7A:73
            X509v3 Authority Key Identifier: 
                9B:26:0B:8A:98:A9:BB:1D:B9:1F:1C:E3:1A:40:33:ED:8E:17:88:AB
            X509v3 Extended Key Usage: 
                TLS Web Server Authentication, TLS Web Client Authentication
            X509v3 Subject Alternative Name: 
                IP Address:127.0.0.1
    Signature Algorithm: sha256WithRSAEncryption
    Signature Value:
        2b:4d:be:5d:a2:73:59:6c:4d:da:d9:a1:21:95:16:8d:17:b1:
        9a:19:4a:05:22:b0:92:a7:9d:b4:a7:ed:b3:e3:11:9f:d8:87:
        0d:55:bc:83:2d:d6:90:f5:a9:2f:9a:73:a1:47:34:17:e7:7c:
        4b:e8:b8:8c:fc:b6:9d:60:77:40:1e:96:7f:e8:6b:5b:a8:9a:
        22:69:56:7a:28:57:5c:2e:1f:9b:1f:1f:67:f1:e2:15:53:da:
        e4:f1:6a:33:e9:22:f4:0c:1f:11:ad:d6:cd:29:96:07:0c:5a:
        4b:c1:1f:79:f9:dc:4d:3b:19:c9:4c:b7:a1:39:e2:e2:18:2a:
        d8:9c:db:60:59:80:86:98:bf:eb:e5:01:e2:c0:fc:1c:88:c9:
        db:a9:dc:39:3f:fb:1e:5f:ba:42:c6:6a:5f:ba:33:d9:02:bc:
        29:43:f3:c5:5c:63:a4:77:33:9c:a8:8f:32:3f:f1:64:57:31:
        e9:00:32:23:14:9a:9a:69:ec:72:8a:fa:3e:7a:ab:d9:be:dd:
        2c:66:8e:70:26:ca:53:7c:80:02:f7:25:e3:40:a1:cc:fe:22:
        37:3f:7a:06:6f:fc:7f:7c:56:cb:8d:45:4d:26:be:1f:eb:2f:
        68:70:06:a9:54:8d:07:65:69:eb:04:ed:24:de:21:12:c1:cb:
        06:2f:f3:9f
-----BEGIN CERTIFICATE-----
MIIDzjCCAragAwIBAgIQFMjH8fFrkQsYRUvAZfL8EzANBgkqhkiG9w0BAQsFADBj
MQswCQYDVQQGEwJVUzETMBEGA1UECAwKQ2FsaWZvcm5pYTEWMBQGA1UEBwwNTW91
bnRhaW4gVmlldzEQMA4GA1UECgwHVGVzdCBDQTEVMBMGA1UEAwwMVGVzdCBSb290
IENBMB4XDTE0MTAzMDAwMDAwMFoXDTE5MDkzMDAwMDAwMFowYDELMAkGA1UEBhMC
VVMxEzARBgNVBAgMCkNhbGlmb3JuaWExFjAUBgNVBAcMDU1vdW50YWluIFZpZXcx
EDAOBgNVBAoMB1Rlc3QgQ0ExEjAQBgNVBAMMCTEyNy4wLjAuMTCCASIwDQYJKoZI
hvcNAQEBBQADggEPADCCAQoCggEBAMupQQfpzQYLQUqs7yATma4QKgDtB3GgK1Bn
maoisBPQu2bshzIoK3HwjTj9I42l1Ny/dxXA8//LXalVDAs3rWDOClxMJD5Q03ig
wKuPs4VCAZ9DgOD2vMBUbfT4k0i2m57FAFs72RBZ4f6pVmLPetN3zk7InRNLXG0J
RBEQ9fXFG1OWT80HTtm5RFjmjjHE9eFSg2Zh/iu2SHNzYNd08+k2rl/gGfND+rse
ke30/z7LCvA7agza9oU454RRrAoZZwMJsFItH2QMPIVVppADnfhAuar0ki3uJfKI
pxLRJ6DCY/ALs5l6lTl1IBkEzIG1wRhZF5SC5FNvWQlJaqFJoAkCAwEAAaOBgDB+
MAwGA1UdEwEB/wQCMAAwHQYDVR0OBBYEFN7rHsP1jv+xHizWApQVAG+Fr3pzMB8G
A1UdIwQYMBaAFJsmC4qYqbsduR8c4xpAM+2OF4irMB0GA1UdJQQWMBQGCCsGAQUF
BwMBBggrBgEFBQcDAjAPBgNVHREECDAGhwR/AAABMA0GCSqGSIb3DQEBCwUAA4IB
AQArTb5donNZbE3a2aEhlRaNF7GaGUoFIrCSp520p+2z4xGf2IcNVbyDLdaQ9akv
mnOhRzQX53xL6LiM/LadYHdAHpZ/6GtbqJoiaVZ6KFdcLh+bHx9n8eIVU9rk8Woz
6SL0DB8RrdbNKZYHDFpLwR95+dxNOxnJTLehOeLiGCrYnNtgWYCGmL/r5QHiwPwc
iMnbqdw5P/seX7pCxmpfujPZArwpQ/PFXGOkdzOcqI8yP/FkVzHpADIjFJqaaexy
ivo+eqvZvt0sZo5wJspTfIAC9yXjQKHM/iI3P3oGb/x/fFbLjUVNJr4f6y9ocAap
VI0HZWnrBO0k3iESwcsGL/Of
-----END CERTIFICATE-----
