Certificate:
    Data:
        Version: 3 (0x2)
        Serial Number:
            14:c8:c7:f1:f1:6b:91:0b:18:45:4b:c0:65:f2:fc:14
        Signature Algorithm: sha256WithRSAEncryption
        Issuer: C=US, ST=California, L=Mountain View, O=Test CA, CN=Test Root CA
        Validity
            Not Before: Oct 30 00:00:00 2014 GMT
            Not After : Nov  3 00:00:00 2019 GMT
        Subject: C=US, ST=California, L=Mountain View, O=Test CA, CN=127.0.0.1
        Subject Public Key Info:
            Public Key Algorithm: rsaEncryption
                Public-Key: (2048 bit)
                Modulus:
                    00:cd:12:1f:b7:7d:57:b2:c8:81:c9:7c:34:fa:0a:
                    8a:e6:bc:4d:dd:1a:27:68:c0:ff:4c:44:c4:cf:31:
                    91:99:36:c6:ad:00:71:35:c2:2c:18:67:36:ed:2f:
                    a0:88:9d:e3:0f:87:b3:b0:a3:18:c0:00:0c:30:0d:
                    24:8a:48:78:c7:89:45:ed:bd:58:57:5c:29:5b:54:
                    f6:f2:35:c8:03:fd:83:a2:f0:6e:cc:e8:df:3c:0c:
                    a5:a8:7e:e9:7b:b0:d0:ff:28:3c:ba:b6:24:20:84:
                    66:3e:06:62:26:0c:ba:63:d4:f1:80:78:6b:95:58:
                    0b:40:d5:96:b1:0a:63:4d:6b:f5:a1:d0:92:6b:a3:
                    d0:4e:41:c5:1f:74:5b:76:27:1c:b3:9d:95:60:77:
                    b1:46:80:22:6a:07:59:17:5f:af:fd:c0:b1:d2:13:
                    cd:9e:6b:a4:25:12:72:95:17:e7:9c:96:94:49:12:
                    53:81:e1:2d:80:4a:88:6c:f5:9c:7f:9b:0e:e4:4f:
                    dc:85:d9:97:7e:e8:22:22:15:f6:51:18:76:35:ce:
                    fc:7e:ca:89:bd:02:97:5f:b3:70:d8:a4:0f:6b:45:
                    ac:71:49:b6:d9:27:22:d0:eb:1e:2d:d5:c2:81:85:
                    a1:73:d6:73:84:6d:f8:81:d1:77:e1:c9:9b:28:b4:
                    e2:c7
                Exponent: 65537 (0x10001)
        X509v3 extensions:
            X509v3 Basic Constraints: critical
                CA:FALSE
            X509v3 Subject Key Identifier: 
                0D:94:EA:75:7C:D1:8D:1D:7B:CF:24:DA:B8:80:C2:33:C3:01:1F:74
            X509v3 Authority Key Identifier: 
                9B:26:0B:8A:98:A9:BB:1D:B9:1F:1C:E3:1A:40:33:ED:8E:17:88:AB
            X509v3 Extended Key Usage: 
                TLS Web Server Authentication, TLS Web Client Authentication
            X509v3 Subject Alternative Name: 
                IP Address:127.0.0.1
    Signature Algorithm: sha256WithRSAEncryption
    Signature Value:
        02:07:7a:67:dd:26:7f:7a:aa:b3:e6:bd:1d:18:5a:b5:2a:d6:
        6e:8d:05:54:1a:fd:81:f1:cf:1d:a9:6c:bc:4f:c9:0f:b5:d1:
        bb:19:74:0f:e4:8a:8a:77:6a:f5:6c:f8:f1:74:ce:db:3d:3f:
        f7:90:82:0d:d2:23:36:3d:55:84:37:02:9f:58:86:95:ae:36:
        a7:21:cd:4d:bc:d9:61:4c:18:fa:dc:1b:12:8a:03:b8:9d:d5:
        9c:17:c8:d9:e4:32:34:83:d1:80:bc:84:14:63:d7:12:d2:d3:
        38:c7:92:0c:aa:75:e1:92:69:8e:64:33:be:d4:40:dd:ac:2e:
        47:bf:a8:98:c5:6c:dc:76:dc:71:85:24:4b:10:e1:b8:ba:88:
        3f:98:79:0f:42:9c:46:95:09:cf:cb:53:35:85:ad:c0:7e:f4:
        be:2c:2d:60:9d:d4:79:cb:b4:3d:23:68:96:89:c9:34:9a:8e:
        b5:3c:bf:bb:1f:23:f4:88:ed:9a:98:e0:77:16:ff:37:a5:ec:
        d9:18:a5:7b:4d:19:35:68:3a:09:d9:aa:79:e7:d9:ed:46:79:
        11:88:d8:68:ea:99:43:d6:7f:f5:97:f5:f3:0b:83:81:c5:34:
        40:69:e0:43:ae:ed:81:af:e8:0d:9b:bb:89:18:35:98:4e:c6:
        d6:16:2e:35
-----BEGIN CERTIFICATE-----
MIIDzjCCAragAwIBAgIQFMjH8fFrkQsYRUvAZfL8FDANBgkqhkiG9w0BAQsFADBj
MQswCQYDVQQGEwJVUzETMBEGA1UECAwKQ2FsaWZvcm5pYTEWMBQGA1UEBwwNTW91
bnRhaW4gVmlldzEQMA4GA1UECgwHVGVzdCBDQTEVMBMGA1UEAwwMVGVzdCBSb290
IENBMB4XDTE0MTAzMDAwMDAwMFoXDTE5MTEwMzAwMDAwMFowYDELMAkGA1UEBhMC
VVMxEzARBgNVBAgMCkNhbGlmb3JuaWExFjAUBgNVBAcMDU1vdW50YWluIFZpZXcx
EDAOBgNVBAoMB1Rlc3QgQ0ExEjAQBgNVBAMMCTEyNy4wLjAuMTCCASIwDQYJKoZI
hvcNAQEBBQADggEPADCCAQoCggEBAM0SH7d9V7LIgcl8NPoKiua8Td0aJ2jA/0xE
xM8xkZk2xq0AcTXCLBhnNu0voIid4w+Hs7CjGMAADDANJIpIeMeJRe29WFdcKVtU
9vI1yAP9g6Lwbszo3zwMpah+6Xuw0P8oPLq2JCCEZj4GYiYMumPU8YB4a5VYC0DV
lrEKY01r9aHQkmuj0E5BxR90W3YnHLOdlWB3sUaAImoHWRdfr/3AsdITzZ5rpCUS
cpUX55yWlEkSU4HhLYBKiGz1nH+bDuRP3IXZl37oIiIV9lEYdjXO/H7Kib0Cl1+z
cNikD2tFrHFJttknItDrHi3VwoGFoXPWc4Rt+IHRd+HJmyi04scCAwEAAaOBgDB+
MAwGA1UdEwEB/wQCMAAwHQYDVR0OBBYEFA2U6nV80Y0de88k2riAwjPDAR90MB8G
A1UdIwQYMBaAFJsmC4qYqbsduR8c4xpAM+2OF4irMB0GA1UdJQQWMBQGCCsGAQUF
BwMBBggrBgEFBQcDAjAPBgNVHREECDAGhwR/AAABMA0GCSqGSIb3DQEBCwUAA4IB
AQACB3pn3SZ/eqqz5r0dGFq1KtZujQVUGv2B8c8dqWy8T8kPtdG7GXQP5IqKd2r1
bPjxdM7bPT/3kIIN0iM2PVWENwKfWIaVrjanIc1NvNlhTBj63BsSigO4ndWcF8jZ
5DI0g9GAvIQUY9cS0tM4x5IMqnXhkmmOZDO+1EDdrC5Hv6iYxWzcdtxxhSRLEOG4
uog/mHkPQpxGlQnPy1M1ha3AfvS+LC1gndR5y7Q9I2iWick0mo61PL+7HyP0iO2a
mOB3Fv83pezZGKV7TRk1aDoJ2ap559ntRnkRiNho6plD1n/1l/XzC4OBxTRAaeBD
ru2Br+gNm7uJGDWYTsbWFi41
-----END CERTIFICATE-----
