Certificate:
    Data:
        Version: 3 (0x2)
        Serial Number:
            14:c8:c7:f1:f1:6b:91:0b:18:45:4b:c0:65:f2:fc:1b
        Signature Algorithm: sha256WithRSAEncryption
        Issuer: C=US, ST=California, L=Mountain View, O=Test CA, CN=Test Root CA
        Validity
            Not Before: Mar  2 00:00:00 2018 GMT
            Not After : Jun  4 00:00:00 2020 GMT
        Subject: C=US, ST=California, L=Mountain View, O=Test CA, CN=127.0.0.1
        Subject Public Key Info:
            Public Key Algorithm: rsaEncryption
                Public-Key: (2048 bit)
                Modulus:
                    00:ba:51:09:e5:e8:18:41:a4:a3:30:04:fd:ba:10:
                    89:bd:8d:a8:ff:03:64:b4:4d:45:1e:65:93:7f:fd:
                    9d:8d:64:0d:43:65:2c:34:b8:83:bc:15:b1:6b:db:
                    0e:07:aa:c1:86:a0:57:50:35:98:68:ba:39:26:8f:
                    11:79:44:ab:57:06:46:75:4d:83:28:e0:18:2d:43:
                    65:d5:04:5a:7b:9d:e4:0c:20:34:ff:e5:ca:22:45:
                    66:dc:de:e2:a7:d1:ca:92:5e:55:ec:bc:8c:7c:28:
                    3b:4c:89:fd:fc:94:e0:f4:25:2f:1b:f0:6d:3b:15:
                    9e:ff:7c:17:f2:1f:f5:71:fa:8f:6b:9c:42:b3:9b:
                    61:6c:13:3a:7f:6e:0f:b9:e1:91:0c:80:05:b0:52:
                    c4:12:7f:91:65:c8:dd:7c:fa:ab:ca:18:bb:2c:6d:
                    4b:4e:0b:2d:10:fd:f2:d0:f2:cc:fc:f5:fe:3e:7f:
                    85:ad:43:b9:33:b1:c1:dd:af:4a:47:ab:14:35:9a:
                    a6:e2:28:71:a7:7b:b7:77:f4:9e:19:bf:17:71:93:
                    7f:6e:28:65:09:92:81:43:bb:70:b0:ec:34:05:28:
                    da:6f:61:28:a8:aa:ce:17:bd:32:4f:a4:50:81:d2:
                    43:87:06:cf:23:11:5a:54:36:76:01:1a:2d:7f:2c:
                    25:85
                Exponent: 65537 (0x10001)
        X509v3 extensions:
            X509v3 Basic Constraints: critical
                CA:FALSE
            X509v3 Subject Key Identifier: 
                F7:71:64:6F:66:23:A4:6C:BB:E6:AC:AC:9C:48:2A:CF:52:96:E0:A3
            X509v3 Authority Key Identifier: 
                9B:26:0B:8A:98:A9:BB:1D:B9:1F:1C:E3:1A:40:33:ED:8E:17:88:AB
            X509v3 Extended Key Usage: 
                TLS Web Server Authentication, TLS Web Client Authentication
            X509v3 Subject Alternative Name: 
                IP Address:127.0.0.1
    Signature Algorithm: sha256WithRSAEncryption
    Signature Value:
        04:33:51:da:fb:3c:a0:21:43:b7:f8:52:7d:e8:e0:fa:8d:ca:
        1d:85:8c:56:fd:9d:05:c8:06:ec:3d:dd:a2:3e:80:a6:62:c7:
        ee:9e:d3:25:48:61:c3:a5:31:00:b6:5b:c5:05:f9:9d:6a:ee:
        75:32:d3:39:52:e7:66:94:52:4a:66:03:00:a0:28:a8:68:90:
        ca:d7:35:b6:36:07:3c:b3:e7:61:de:40:41:6e:2f:ac:ae:30:
        86:b4:74:eb:93:7c:c1:47:ab:b9:3e:3a:9e:76:9e:80:37:cd:
        05:f2:81:62:03:07:7d:56:87:06:09:98:09:da:13:8f:c3:35:
        fb:0a:dc:49:48:64:4e:02:ca:41:94:b4:8e:a0:95:d2:1f:c7:
        05:f0:8c:3c:8e:37:35:4c:9f:49:fb:9e:6e:9c:00:f8:d1:ba:
        a3:54:a2:2d:45:5c:07:0e:2c:0a:f6:8e:12:e5:3b:41:d9:86:
        83:82:ee:1e:31:27:55:4d:6c:a0:86:8c:18:62:3a:da:96:03:
        e3:3b:0a:42:5d:e6:dd:d5:98:20:e9:42:cb:0a:39:8d:2d:d2:
        b1:7d:4f:29:64:7a:ac:3a:53:6b:6f:1f:67:57:b4:1a:16:48:
        43:a9:be:2b:06:93:32:f7:8c:a5:11:e7:b3:d1:0c:2d:83:87:
        b3:c8:02:2a
-----BEGIN CERTIFICATE-----
MIIDzjCCAragAwIBAgIQFMjH8fFrkQsYRUvAZfL8GzANBgkqhkiG9w0BAQsFADBj
MQswCQYDVQQGEwJVUzETMBEGA1UECAwKQ2FsaWZvcm5pYTEWMBQGA1UEBwwNTW91
bnRhaW4gVmlldzEQMA4GA1UECgwHVGVzdCBDQTEVMBMGA1UEAwwMVGVzdCBSb290
IENBMB4XDTE4MDMwMjAwMDAwMFoXDTIwMDYwNDAwMDAwMFowYDELMAkGA1UEBhMC
VVMxEzARBgNVBAgMCkNhbGlmb3JuaWExFjAUBgNVBAcMDU1vdW50YWluIFZpZXcx
EDAOBgNVBAoMB1Rlc3QgQ0ExEjAQBgNVBAMMCTEyNy4wLjAuMTCCASIwDQYJKoZI
hvcNAQEBBQADggEPADCCAQoCggEBALpRCeXoGEGkozAE/boQib2NqP8DZLRNRR5l
k3/9nY1kDUNlLDS4g7wVsWvbDgeqwYagV1A1mGi6OSaPEXlEq1cGRnVNgyjgGC1D
ZdUEWnud5AwgNP/lyiJFZtze4qfRypJeVey8jHwoO0yJ/fyU4PQlLxvwbTsVnv98
F/If9XH6j2ucQrObYWwTOn9uD7nhkQyABbBSxBJ/kWXI3Xz6q8oYuyxtS04LLRD9
8tDyzPz1/j5/ha1DuTOxwd2vSkerFDWapuIocad7t3f0nhm/F3GTf24oZQmSgUO7
cLDsNAUo2m9hKKiqzhe9Mk+kUIHSQ4cGzyMRWlQ2dgEaLX8sJYUCAwEAAaOBgDB+
MAwGA1UdEwEB/wQCMAAwHQYDVR0OBBYEFPdxZG9mI6Rsu+asrJxIKs9SluCjMB8G
A1UdIwQYMBaAFJsmC4qYqbsduR8c4xpAM+2OF4irMB0GA1UdJQQWMBQGCCsGAQUF
BwMBBggrBgEFBQcDAjAPBgNVHREECDAGhwR/AAABMA0GCSqGSIb3DQEBCwUAA4IB
AQAEM1Ha+zygIUO3+FJ96OD6jcodhYxW/Z0FyAbsPd2iPoCmYsfuntMlSGHDpTEA
tlvFBfmdau51MtM5UudmlFJKZgMAoCioaJDK1zW2Ngc8s+dh3kBBbi+srjCGtHTr
k3zBR6u5Pjqedp6AN80F8oFiAwd9VocGCZgJ2hOPwzX7CtxJSGROAspBlLSOoJXS
H8cF8Iw8jjc1TJ9J+55unAD40bqjVKItRVwHDiwK9o4S5TtB2YaDgu4eMSdVTWyg
howYYjralgPjOwpCXebd1Zgg6ULLCjmNLdKxfU8pZHqsOlNrbx9nV7QaFkhDqb4r
BpMy94ylEeez0Qwtg4ezyAIq
-----END CERTIFICATE-----
