Certificate:
    Data:
        Version: 3 (0x2)
        Serial Number:
            14:c8:c7:f1:f1:6b:91:0b:18:45:4b:c0:65:f2:fc:1c
        Signature Algorithm: sha256WithRSAEncryption
        Issuer: C=US, ST=California, L=Mountain View, O=Test CA, CN=Test Root CA
        Validity
            Not Before: Mar  2 00:00:00 2018 GMT
            Not After : Jun  4 00:00:01 2020 GMT
        Subject: C=US, ST=California, L=Mountain View, O=Test CA, CN=127.0.0.1
        Subject Public Key Info:
            Public Key Algorithm: rsaEncryption
                Public-Key: (2048 bit)
                Modulus:
                    00:b2:d8:66:07:8c:54:60:59:4a:43:b8:3b:3e:d0:
                    2d:12:dd:44:40:f6:78:ac:ed:1d:9e:5a:b2:64:4b:
                    db:02:57:37:ad:e2:d7:b9:1a:c3:a0:d3:a0:dc:6d:
                    84:50:fb:b1:c6:d6:bd:3f:f6:26:83:0a:63:29:5d:
                    a9:12:f0:8b:05:23:e0:46:64:ee:e0:96:30:65:a3:
                    dc:57:63:a0:d1:8a:bd:19:27:f6:6d:b7:e6:fc:40:
                    ee:1b:e9:12:67:c4:48:3c:45:7b:30:d0:f3:98:5d:
                    d3:14:c5:8a:3d:22:b5:e1:e2:0e:6f:b4:67:85:06:
                    12:33:0b:a5:b9:67:9d:77:ca:b1:a5:f9:cc:3a:d7:
                    5e:f0:e5:b2:a5:9f:44:7c:44:eb:50:a7:78:83:6c:
                    b8:e6:1e:0a:76:1f:ca:a3:9b:d4:f8:12:21:73:90:
                    4d:ab:30:fd:33:92:9e:19:07:4b:10:d1:d5:42:78:
                    4d:a6:7f:ef:da:9d:4f:3c:02:8a:f3:63:22:bf:c8:
                    38:75:96:80:e8:d0:81:09:61:b7:36:46:56:29:96:
                    84:74:29:34:d6:d7:e7:1f:b7:64:18:f4:c0:aa:cd:
                    28:07:13:ba:4e:56:71:b2:86:0e:6c:a7:82:70:5a:
                    b8:cf:cd:9c:92:d3:32:a0:55:12:ce:65:ff:dd:a7:
                    a7:a3
                Exponent: 65537 (0x10001)
        X509v3 extensions:
            X509v3 Basic Constraints: critical
                CA:FALSE
            X509v3 Subject Key Identifier: 
                7C:3D:03:AC:C4:E9:6A:91:84:C4:99:A7:35:4F:1C:B0:54:1F:C2:E0
            X509v3 Authority Key Identifier: 
                9B:26:0B:8A:98:A9:BB:1D:B9:1F:1C:E3:1A:40:33:ED:8E:17:88:AB
            X509v3 Extended Key Usage: 
                TLS Web Server Authentication, TLS Web Client Authentication
            X509v3 Subject Alternative Name: 
                IP Address:127.0.0.1
    Signature Algorithm: sha256WithRSAEncryption
    Signature Value:
        78:56:10:0c:33:88:bc:46:8f:ee:52:ae:e4:89:94:04:49:38:
        01:48:83:9c:13:92:fb:76:12:be:f5:1f:a5:66:0e:e3:34:00:
        55:e6:26:84:94:85:c5:d8:98:15:de:88:8e:dd:60:ba:38:a8:
        45:ac:77:d9:93:13:a9:18:37:0d:54:8f:17:a3:a2:c7:f1:e5:
        08:56:1e:7e:1f:ad:6a:b1:ce:b8:cb:25:a8:7e:aa:0f:fb:7d:
        ff:84:37:0c:6c:aa:49:93:db:cc:aa:9d:f3:c5:71:bb:51:ee:
        da:72:96:17:99:38:e1:46:f5:93:52:34:51:84:aa:ac:48:f8:
        88:71:7b:14:80:4d:19:ae:66:8d:bf:3d:85:15:e6:ab:d5:bd:
        a2:89:ba:21:42:43:20:24:cb:02:a1:a7:46:30:7e:11:ef:f0:
        4e:64:dc:67:23:04:04:a0:a7:d3:a8:2f:98:a4:f3:f4:3d:70:
        6d:8c:65:d7:8b:ed:27:29:81:09:86:34:c5:3b:78:9b:57:0b:
        27:20:10:7a:0d:8d:d8:14:4e:18:8d:23:19:6d:be:56:33:05:
        29:76:95:74:5b:80:d1:31:aa:bb:13:98:62:58:d4:d1:64:84:
        0e:db:d5:36:e8:4b:fd:b7:1d:aa:a6:1e:15:f2:ca:b5:e6:8d:
        49:fc:ca:10
-----BEGIN CERTIFICATE-----
MIIDzjCCAragAwIBAgIQFMjH8fFrkQsYRUvAZfL8HDANBgkqhkiG9w0BAQsFADBj
MQswCQYDVQQGEwJVUzETMBEGA1UECAwKQ2FsaWZvcm5pYTEWMBQGA1UEBwwNTW91
bnRhaW4gVmlldzEQMA4GA1UECgwHVGVzdCBDQTEVMBMGA1UEAwwMVGVzdCBSb290
IENBMB4XDTE4MDMwMjAwMDAwMFoXDTIwMDYwNDAwMDAwMVowYDELMAkGA1UEBhMC
VVMxEzARBgNVBAgMCkNhbGlmb3JuaWExFjAUBgNVBAcMDU1vdW50YWluIFZpZXcx
EDAOBgNVBAoMB1Rlc3QgQ0ExEjAQBgNVBAMMCTEyNy4wLjAuMTCCASIwDQYJKoZI
hvcNAQEBBQADggEPADCCAQoCggEBALLYZgeMVGBZSkO4Oz7QLRLdRED2eKztHZ5a
smRL2wJXN63i17kaw6DToNxthFD7scbWvT/2JoMKYyldqRLwiwUj4EZk7uCWMGWj
3FdjoNGKvRkn9m235vxA7hvpEmfESDxFezDQ85hd0xTFij0iteHiDm+0Z4UGEjML
pblnnXfKsaX5zDrXXvDlsqWfRHxE61CneINsuOYeCnYfyqOb1PgSIXOQTasw/TOS
nhkHSxDR1UJ4TaZ/79qdTzwCivNjIr/IOHWWgOjQgQlhtzZGVimWhHQpNNbX5x+3
ZBj0wKrNKAcTuk5WcbKGDmyngnBauM/NnJLTMqBVEs5l/92np6MCAwEAAaOBgDB+
MAwGA1UdEwEB/wQCMAAwHQYDVR0OBBYEFHw9A6zE6WqRhMSZpzVPHLBUH8LgMB8G
A1UdIwQYMBaAFJsmC4qYqbsduR8c4xpAM+2OF4irMB0GA1UdJQQWMBQGCCsGAQUF
BwMBBggrBgEFBQcDAjAPBgNVHREECDAGhwR/AAABMA0GCSqGSIb3DQEBCwUAA4IB
AQB4VhAMM4i8Ro/uUq7kiZQESTgBSIOcE5L7dhK+9R+lZg7jNABV5iaElIXF2JgV
3oiO3WC6OKhFrHfZkxOpGDcNVI8Xo6LH8eUIVh5+H61qsc64yyWofqoP+33/hDcM
bKpJk9vMqp3zxXG7Ue7acpYXmTjhRvWTUjRRhKqsSPiIcXsUgE0ZrmaNvz2FFear
1b2iibohQkMgJMsCoadGMH4R7/BOZNxnIwQEoKfTqC+YpPP0PXBtjGXXi+0nKYEJ
hjTFO3ibVwsnIBB6DY3YFE4YjSMZbb5WMwUpdpV0W4DRMaq7E5hiWNTRZIQO29U2
6Ev9tx2qph4V8sq15o1J/MoQ
-----END CERTIFICATE-----
