Certificate:
    Data:
        Version: 3 (0x2)
        Serial Number:
            14:c8:c7:f1:f1:6b:91:0b:18:45:4b:c0:65:f2:fc:1a
        Signature Algorithm: sha256WithRSAEncryption
        Issuer: C=US, ST=California, L=Mountain View, O=Test CA, CN=Test Root CA
        Validity
            Not Before: Mar  2 00:00:00 2018 GMT
            Not After : Jun  5 00:00:00 2020 GMT
        Subject: C=US, ST=California, L=Mountain View, O=Test CA, CN=127.0.0.1
        Subject Public Key Info:
            Public Key Algorithm: rsaEncryption
                Public-Key: (2048 bit)
                Modulus:
                    00:aa:1c:fc:39:2e:00:d9:76:f3:45:5a:c9:3d:06:
                    bd:25:8c:49:a8:3a:fe:e8:d6:0d:0a:d3:9e:ca:8d:
                    e1:db:a9:0c:da:88:2d:e7:d3:db:c0:ae:90:0d:9e:
                    72:a4:fc:69:3c:f3:e2:f1:9c:d8:5b:c4:76:b5:30:
                    b6:a5:51:af:4f:63:7d:66:37:71:a9:50:cc:0f:b0:
                    e0:19:d8:cf:9b:9e:31:3a:8e:fb:83:0d:34:42:32:
                    cf:d6:29:74:84:48:9e:1e:7c:de:f3:d6:2e:7b:9a:
                    27:59:d0:c6:46:6a:de:88:d7:91:b0:9a:57:e8:30:
                    b1:7c:a3:7c:91:55:22:f5:dd:42:0f:d9:16:38:d9:
                    2a:34:e3:39:d0:69:5a:70:cf:88:0d:9e:e8:dd:6c:
                    9f:6e:61:fe:1e:9a:af:36:f4:e8:50:2f:6a:48:fb:
                    d6:fc:31:c8:5e:5e:33:31:02:d0:7c:bc:09:58:3c:
                    fe:a5:8c:5d:55:14:06:4d:32:74:42:7e:78:54:be:
                    fa:41:d0:90:6f:f0:24:1b:25:ad:aa:23:ba:d4:eb:
                    7c:8a:58:34:fa:39:2a:27:04:7c:ff:aa:fd:de:71:
                    69:4a:27:74:53:97:05:0f:79:89:ec:8b:c6:4d:12:
                    ed:4d:0b:4e:e8:4a:c8:58:0c:f0:2c:1c:30:b7:d0:
                    ff:8f
                Exponent: 65537 (0x10001)
        X509v3 extensions:
            X509v3 Basic Constraints: critical
                CA:FALSE
            X509v3 Subject Key Identifier: 
                27:3F:24:56:3A:26:38:04:70:99:05:9D:B5:CF:D4:1C:ED:17:47:2F
            X509v3 Authority Key Identifier: 
                9B:26:0B:8A:98:A9:BB:1D:B9:1F:1C:E3:1A:40:33:ED:8E:17:88:AB
            X509v3 Extended Key Usage: 
                TLS Web Server Authentication, TLS Web Client Authentication
            X509v3 Subject Alternative Name: 
                IP Address:127.0.0.1
    Signature Algorithm: sha256WithRSAEncryption
    Signature Value:
        bd:21:7f:af:c8:9c:2b:c0:00:78:eb:22:b4:5a:8e:bb:19:83:
        8c:dd:c9:62:25:6d:55:a2:1d:aa:e3:ac:39:18:4f:11:92:90:
        ae:da:3c:c3:0d:90:0b:c8:31:87:ab:c2:32:c1:69:28:21:7d:
        5a:40:11:e0:d0:8f:6d:e9:72:ff:3d:e8:a8:0e:96:24:ae:57:
        67:57:55:75:36:f1:ef:e6:05:1a:9d:ee:b4:82:7b:4d:c9:de:
        82:15:4a:b9:dc:af:3f:89:7d:f8:c2:d7:5d:0f:20:f7:96:88:
        4c:f5:bd:dd:8d:40:6d:e0:3e:00:7d:c5:b2:ef:7c:88:2b:29:
        7f:5a:25:22:eb:84:26:2f:bb:f6:d8:b6:cd:44:98:b3:de:8b:
        92:e0:bc:b0:0d:21:d8:33:f8:a0:ac:0e:b8:69:cd:fb:ab:48:
        fa:21:99:1c:48:38:bc:8f:f6:9a:8b:f2:85:51:1b:62:64:e4:
        cb:fc:69:dc:3d:ae:5e:d7:00:87:fb:8b:8e:27:cf:c4:0e:7b:
        65:39:d4:52:e7:82:b5:70:57:bd:3d:84:0b:e8:a1:26:3c:fc:
        f7:48:e5:11:70:51:54:31:3e:7c:89:76:99:c5:44:1f:50:1b:
        18:d0:7d:07:07:34:48:cf:d7:80:da:4d:0a:03:6a:f4:05:0a:
        6d:00:ab:82
-----BEGIN CERTIFICATE-----
MIIDzjCCAragAwIBAgIQFMjH8fFrkQsYRUvAZfL8GjANBgkqhkiG9w0BAQsFADBj
MQswCQYDVQQGEwJVUzETMBEGA1UECAwKQ2FsaWZvcm5pYTEWMBQGA1UEBwwNTW91
bnRhaW4gVmlldzEQMA4GA1UECgwHVGVzdCBDQTEVMBMGA1UEAwwMVGVzdCBSb290
IENBMB4XDTE4MDMwMjAwMDAwMFoXDTIwMDYwNTAwMDAwMFowYDELMAkGA1UEBhMC
VVMxEzARBgNVBAgMCkNhbGlmb3JuaWExFjAUBgNVBAcMDU1vdW50YWluIFZpZXcx
EDAOBgNVBAoMB1Rlc3QgQ0ExEjAQBgNVBAMMCTEyNy4wLjAuMTCCASIwDQYJKoZI
hvcNAQEBBQADggEPADCCAQoCggEBAKoc/DkuANl280VayT0GvSWMSag6/ujWDQrT
nsqN4dupDNqILefT28CukA2ecqT8aTzz4vGc2FvEdrUwtqVRr09jfWY3calQzA+w
4BnYz5ueMTqO+4MNNEIyz9YpdIRInh583vPWLnuaJ1nQxkZq3ojXkbCaV+gwsXyj
fJFVIvXdQg/ZFjjZKjTjOdBpWnDPiA2e6N1sn25h/h6arzb06FAvakj71vwxyF5e
MzEC0Hy8CVg8/qWMXVUUBk0ydEJ+eFS++kHQkG/wJBslraojutTrfIpYNPo5KicE
fP+q/d5xaUondFOXBQ95ieyLxk0S7U0LTuhKyFgM8CwcMLfQ/48CAwEAAaOBgDB+
MAwGA1UdEwEB/wQCMAAwHQYDVR0OBBYEFCc/JFY6JjgEcJkFnbXP1BztF0cvMB8G
A1UdIwQYMBaAFJsmC4qYqbsduR8c4xpAM+2OF4irMB0GA1UdJQQWMBQGCCsGAQUF
BwMBBggrBgEFBQcDAjAPBgNVHREECDAGhwR/AAABMA0GCSqGSIb3DQEBCwUAA4IB
AQC9IX+vyJwrwAB46yK0Wo67GYOM3cliJW1Voh2q46w5GE8RkpCu2jzDDZALyDGH
q8IywWkoIX1aQBHg0I9t6XL/PeioDpYkrldnV1V1NvHv5gUane60gntNyd6CFUq5
3K8/iX34wtddDyD3lohM9b3djUBt4D4AfcWy73yIKyl/WiUi64QmL7v22LbNRJiz
3ouS4LywDSHYM/igrA64ac37q0j6IZkcSDi8j/aai/KFURtiZOTL/GncPa5e1wCH
+4uOJ8/EDntlOdRS54K1cFe9PYQL6KEmPPz3SOURcFFUMT58iXaZxUQfUBsY0H0H
BzRIz9eA2k0KA2r0BQptAKuC
-----END CERTIFICATE-----
