Certificate:
    Data:
        Version: 3 (0x2)
        Serial Number:
            14:c8:c7:f1:f1:6b:91:0b:18:45:4b:c0:65:f2:fc:26
        Signature Algorithm: sha256WithRSAEncryption
        Issuer: C=US, ST=California, L=Mountain View, O=Test CA, CN=Test Root CA
        Validity
            Not Before: Nov 15 00:47:49 2025 GMT
            Not After : May  3 00:47:49 2028 GMT
        Subject: C=US, ST=California, L=Mountain View, O=Test CA, CN=127.0.0.1
        Subject Public Key Info:
            Public Key Algorithm: rsaEncryption
                Public-Key: (2048 bit)
                Modulus:
                    00:b6:19:06:64:46:36:10:56:8a:e8:3a:3f:33:82:
                    59:73:b6:21:04:2a:4d:02:12:99:59:30:b7:86:98:
                    04:63:f0:83:0f:dd:f8:18:f9:53:88:ae:5c:94:1c:
                    f7:3d:5b:a2:2e:6d:09:b6:6d:ee:48:9b:41:0b:94:
                    d2:99:11:b3:9a:0e:b3:87:fe:de:81:1b:18:ba:cf:
                    08:fb:31:75:60:52:ce:36:5b:60:52:bb:40:0c:08:
                    67:10:69:8c:08:d8:8a:8b:b2:63:51:4b:14:cb:6b:
                    29:95:1c:a7:cd:a6:7d:16:c1:78:01:d0:b6:78:3a:
                    e5:c4:06:e3:0f:1d:da:8d:f2:f9:80:ea:42:e8:3c:
                    75:93:4a:3f:7f:46:b2:bf:e9:7b:cc:cb:a3:78:75:
                    33:8d:32:de:ea:8d:81:14:e6:1c:73:51:59:32:32:
                    7d:7a:9e:5a:b3:79:ff:ec:f5:76:69:1f:d0:73:41:
                    64:96:bd:5c:c1:80:56:5e:33:a2:14:e0:4a:81:5d:
                    f6:62:4a:2a:5a:c4:69:40:c9:af:59:78:ce:45:0f:
                    51:8f:36:44:6e:30:45:28:46:26:03:4b:87:08:66:
                    95:a3:6e:67:39:97:66:21:55:b5:20:f4:43:5a:6d:
                    12:c8:97:57:c6:e8:9f:a1:e2:2e:4c:9b:fd:d5:45:
                    da:ff
                Exponent: 65537 (0x10001)
        X509v3 extensions:
            X509v3 Basic Constraints: critical
                CA:FALSE
            X509v3 Subject Key Identifier: 
                3F:F8:0E:BC:E5:E0:18:27:D0:C4:A2:9D:B2:F4:D8:1C:F6:E1:F3:B6
            X509v3 Authority Key Identifier: 
                9B:26:0B:8A:98:A9:BB:1D:B9:1F:1C:E3:1A:40:33:ED:8E:17:88:AB
            X509v3 Extended Key Usage: 
                TLS Web Server Authentication, TLS Web Client Authentication
            X509v3 Subject Alternative Name: 
                IP Address:127.0.0.1
    Signature Algorithm: sha256WithRSAEncryption
    Signature Value:
        4b:c7:88:f8:09:91:c4:92:30:cc:f0:40:d3:9e:aa:66:25:6f:
        3c:9a:3c:45:bc:f6:59:43:4e:24:ae:0d:88:8c:71:4b:bd:53:
        42:82:c4:ca:ce:af:e4:7f:1d:fc:6f:01:e8:2e:12:85:fb:af:
        56:80:ed:16:08:df:d2:3b:86:9b:e1:e2:3a:6a:da:98:85:99:
        aa:e4:3e:b3:96:4c:2e:4f:0f:e5:5a:4c:23:10:3b:5e:81:1c:
        64:b5:28:1e:4a:d3:94:97:0b:26:79:41:f8:59:f4:f9:86:c2:
        a8:18:45:17:66:02:5a:8f:df:57:3e:50:84:9c:34:82:9c:d2:
        eb:dd:24:d6:19:9b:7f:85:a6:68:01:a2:07:fb:ea:2f:94:46:
        ec:7c:75:bf:d9:a0:48:b6:81:2c:39:4f:0e:a7:63:2c:e1:45:
        4f:fa:af:5a:0b:df:9e:b0:b0:27:aa:ea:f1:97:f6:b2:7c:76:
        f0:3b:d5:25:9e:1e:f1:5e:cb:65:ef:ce:39:a5:a7:d3:1e:6d:
        73:56:56:34:49:98:4e:9a:2f:db:26:d1:23:93:4e:c9:dd:4f:
        9f:c8:3b:15:c2:8e:9f:2b:d5:79:86:e5:8c:c9:eb:43:d3:a7:
        87:d5:42:bb:39:75:32:b1:f7:bd:92:34:88:f0:3f:3d:ed:b6:
        8d:ba:0c:d6
-----BEGIN CERTIFICATE-----
MIIDzjCCAragAwIBAgIQFMjH8fFrkQsYRUvAZfL8JjANBgkqhkiG9w0BAQsFADBj
MQswCQYDVQQGEwJVUzETMBEGA1UECAwKQ2FsaWZvcm5pYTEWMBQGA1UEBwwNTW91
bnRhaW4gVmlldzEQMA4GA1UECgwHVGVzdCBDQTEVMBMGA1UEAwwMVGVzdCBSb290
IENBMB4XDTI1MTExNTAwNDc0OVoXDTI4MDUwMzAwNDc0OVowYDELMAkGA1UEBhMC
VVMxEzARBgNVBAgMCkNhbGlmb3JuaWExFjAUBgNVBAcMDU1vdW50YWluIFZpZXcx
EDAOBgNVBAoMB1Rlc3QgQ0ExEjAQBgNVBAMMCTEyNy4wLjAuMTCCASIwDQYJKoZI
hvcNAQEBBQADggEPADCCAQoCggEBALYZBmRGNhBWiug6PzOCWXO2IQQqTQISmVkw
t4aYBGPwgw/d+Bj5U4iuXJQc9z1boi5tCbZt7kibQQuU0pkRs5oOs4f+3oEbGLrP
CPsxdWBSzjZbYFK7QAwIZxBpjAjYiouyY1FLFMtrKZUcp82mfRbBeAHQtng65cQG
4w8d2o3y+YDqQug8dZNKP39Gsr/pe8zLo3h1M40y3uqNgRTmHHNRWTIyfXqeWrN5
/+z1dmkf0HNBZJa9XMGAVl4zohTgSoFd9mJKKlrEaUDJr1l4zkUPUY82RG4wRShG
JgNLhwhmlaNuZzmXZiFVtSD0Q1ptEsiXV8bon6HiLkyb/dVF2v8CAwEAAaOBgDB+
MAwGA1UdEwEB/wQCMAAwHQYDVR0OBBYEFD/4Drzl4Bgn0MSinbL02Bz24fO2MB8G
A1UdIwQYMBaAFJsmC4qYqbsduR8c4xpAM+2OF4irMB0GA1UdJQQWMBQGCCsGAQUF
BwMBBggrBgEFBQcDAjAPBgNVHREECDAGhwR/AAABMA0GCSqGSIb3DQEBCwUAA4IB
AQBLx4j4CZHEkjDM8EDTnqpmJW88mjxFvPZZQ04krg2IjHFLvVNCgsTKzq/kfx38
bwHoLhKF+69WgO0WCN/SO4ab4eI6atqYhZmq5D6zlkwuTw/lWkwjEDtegRxktSge
StOUlwsmeUH4WfT5hsKoGEUXZgJaj99XPlCEnDSCnNLr3STWGZt/haZoAaIH++ov
lEbsfHW/2aBItoEsOU8Op2Ms4UVP+q9aC9+esLAnqurxl/ayfHbwO9Ulnh7xXstl
7845pafTHm1zVlY0SZhOmi/bJtEjk07J3U+fyDsVwo6fK9V5huWMyetD06eH1UK7
OXUysfe9kjSI8D897baNugzW
-----END CERTIFICATE-----
