-----BEGIN PRIVATE KEY-----
MIIEvAIBADANBgkqhkiG9w0BAQEFAASCBKYwggSiAgEAAoIBAQCiVRmZF9Joj2Ii
Q+topqfn/1rdEOWWrQ334Z95u/Di2OnNzImxnobNU/jkc1x5TEGBfMzJsdDKYos9
iI4IqrrtNEmuza4dY/mMWAHCMDVB7z00vS2IdaTeygjBst6wV5SE3GQHv1+BSXsB
Amqd89xMcJgzCdIX0+JqdBi9eh5I4igstf+GFzPQJFnhQkgfbzf77/7nbwDtNLzA
TW/JTyBcv9Cmy1GUvF5gmCRoNmtHotKwDYHzbuX9bUciaJ0MsFnfJXBM4qk+uM9H
7PO3UQLplNoiLgfYXDu7cK640ig9MKZ83KispAoJfQZxyXfl72SEN5zj/ALIeL/G
jT+XQLYjAgMBAAECggEAEZZvxg73LH3wb271Z+q6gV/Au/fTMB6Cx2sKCLnskN9Y
gYQaHQTkbQWejz3SdI/m/v0DAQ1DZlID7QBJBzZcN0v1ebtuFGAbDvIQCraHZqPh
eT/P2ZuJZ9vy0+2pw+hRPo3URqSc19iau5LD82YS5bNDQjBbs1oxC0CV152N/25Z
AfHsO602BASq5Bb5wzDNVsTTLqKkoytQO51ueOSLUPpAz2Mn+9qP0mocdNOp76fm
pADejx38uRuxwXJfl5NpHN4MoooR9UpmoMgNp+A1RKs/mHqJoHKeFfVw0Wzamq/2
G0goYGDg6LSKcaWbodFBHC2LD6M2rAV/EGWLXLdcSQKBgQDdaGIcU4NsACKfKkAs
OYkM4lAlKEkefgdFui75VDhq5ImZ2xRj3vYlJbyTg3KFTCGb941Dol32S59f7wVl
8H3ILS96HC3FU1pKE40Sf9aeEsAG+cfKaaf8RRHNHvtC9RWmT400yyI7WL5kViQl
AkvaArBCjA2t3wdUEmQUDHT6qwKBgQC7seOAWj0L0dtfEyqjhsTRSZsqVA51LhWQ
lrBVT+9GyJv3LHvy/dgeML87fAGvYq22I2ZtOR/wwTPHLgwEi+j+mom6ZE9qv2N/
qevhAMDbGZ7TIbBFzCWQVAvkuXPRmETLYq2xC3uGDpgxyyv+ISH3X3PNmdhvlU4x
bTiXfvGyaQKBgDufEExwcMN0hd42knFWTQGbL9nRr172sR6ltGCPvWGLiUJVLHh4
YfA+6TkP/JbImYRWdUPxRTw9wP0kcF+zEywEfvRzAiBRAc9Q1HxW0IRgqDU4rgRj
z0ivkMubvC2bsejHI09EJEO28g4y5CjTJXnfn3dMH6LinCaXjTuY3ydhAoGAHek/
ZBj9WYDcAM7BIMY9X0znmVtD4pCxhxU8jJvsec9Ga6F/Lz4cztLd5tDgQ97p5/jE
Peu4l1lysu83oxHY05o1EKsjrNNLO/EMUhMYqNHwaZ0Yxka+Rb3fF1gmiORHMlJL
c8dsq/RvdJ/4JsuI6i8f+UfnIgEdMOtC9YGZauECgYB7tmVAAujGQQiuVPsRrMv3
Ijui5j9MzQTRnNNS+3qRgRycOZU53LTIR6NoOO4Bjb42mD1ztOVCbSEMs869nOue
9cc/5gcISzeniASknHpimhp6g7y4xG3uGlAH440uZ2SxPNAjwN9M4T4JR1arHSZF
gSoOWZ4ije0g/q4qZIj9Hg==
-----END PRIVATE KEY-----
Certificate:
    Data:
        Version: 3 (0x2)
        Serial Number:
            14:c8:c7:f1:f1:6b:91:0b:18:45:4b:c0:65:f2:fc:0c
        Signature Algorithm: sha256WithRSAEncryption
        Issuer: C=US, ST=California, L=Mountain View, O=Test CA, CN=Test Root CA
        Validity
            Not Before: Jan  1 00:00:00 1 GMT
            Not After : Jan  1 00:00:00 1 GMT
        Subject: CN=Leaf Certificate
        Subject Public Key Info:
            Public Key Algorithm: rsaEncryption
                Public-Key: (2048 bit)
                Modulus:
                    00:a2:55:19:99:17:d2:68:8f:62:22:43:eb:68:a6:
                    a7:e7:ff:5a:dd:10:e5:96:ad:0d:f7:e1:9f:79:bb:
                    f0:e2:d8:e9:cd:cc:89:b1:9e:86:cd:53:f8:e4:73:
                    5c:79:4c:41:81:7c:cc:c9:b1:d0:ca:62:8b:3d:88:
                    8e:08:aa:ba:ed:34:49:ae:cd:ae:1d:63:f9:8c:58:
                    01:c2:30:35:41:ef:3d:34:bd:2d:88:75:a4:de:ca:
                    08:c1:b2:de:b0:57:94:84:dc:64:07:bf:5f:81:49:
                    7b:01:02:6a:9d:f3:dc:4c:70:98:33:09:d2:17:d3:
                    e2:6a:74:18:bd:7a:1e:48:e2:28:2c:b5:ff:86:17:
                    33:d0:24:59:e1:42:48:1f:6f:37:fb:ef:fe:e7:6f:
                    00:ed:34:bc:c0:4d:6f:c9:4f:20:5c:bf:d0:a6:cb:
                    51:94:bc:5e:60:98:24:68:36:6b:47:a2:d2:b0:0d:
                    81:f3:6e:e5:fd:6d:47:22:68:9d:0c:b0:59:df:25:
                    70:4c:e2:a9:3e:b8:cf:47:ec:f3:b7:51:02:e9:94:
                    da:22:2e:07:d8:5c:3b:bb:70:ae:b8:d2:28:3d:30:
                    a6:7c:dc:a8:ac:a4:0a:09:7d:06:71:c9:77:e5:ef:
                    64:84:37:9c:e3:fc:02:c8:78:bf:c6:8d:3f:97:40:
                    b6:23
                Exponent: 65537 (0x10001)
        X509v3 extensions:
            X509v3 Basic Constraints: critical
                CA:FALSE
            X509v3 Subject Key Identifier: 
                9A:0C:FA:60:67:33:AA:D3:A9:13:6E:55:7F:C1:65:8E:DE:01:ED:C0
            X509v3 Authority Key Identifier: 
                9B:26:0B:8A:98:A9:BB:1D:B9:1F:1C:E3:1A:40:33:ED:8E:17:88:AB
            X509v3 Extended Key Usage: 
                TLS Web Server Authentication, TLS Web Client Authentication
            X509v3 Subject Alternative Name: 
                IP Address:127.0.0.1
    Signature Algorithm: sha256WithRSAEncryption
    Signature Value:
        7c:80:46:8b:a6:4f:fa:38:74:7d:ee:60:a0:83:d8:bf:4e:0a:
        2f:4e:23:f9:dd:85:92:13:5b:76:27:a4:e1:1c:e2:1b:d7:88:
        f3:56:bd:09:f8:20:b7:e6:fc:b0:47:a9:bc:c3:10:f2:83:5a:
        42:8a:24:f6:16:3d:36:25:96:69:a1:dd:38:2e:b3:f6:88:53:
        e3:15:7c:6a:ef:a2:25:f4:9b:d2:fe:35:b0:81:53:80:63:c3:
        4b:07:50:cd:c1:c8:c3:d9:06:76:02:81:ab:99:a1:8b:82:54:
        54:59:1a:fc:d8:c2:b9:33:ef:83:c3:af:38:b8:de:86:53:94:
        94:37:f6:3c:56:de:42:59:7e:1d:45:b5:97:cd:af:04:66:54:
        d5:33:16:29:0f:a7:10:41:df:fe:39:cd:e7:b9:26:16:02:e1:
        34:c0:de:71:c9:98:1a:8a:f0:63:5a:8a:15:cb:f9:6f:4b:ac:
        97:b4:0d:9f:36:23:1c:36:28:2b:08:7d:e0:83:47:6c:35:9a:
        10:79:9d:6b:cb:cb:46:de:d9:c6:0a:3d:5b:cf:91:cc:e1:6f:
        5b:bc:bc:dc:3e:7d:2e:6d:71:10:4d:3f:9b:f8:99:b7:1e:dc:
        f9:ed:86:2b:50:e6:69:1f:91:9f:47:f4:7b:7c:aa:c4:b3:e2:
        2d:cc:c9:0e
-----BEGIN CERTIFICATE-----
MIIDjTCCAnWgAwIBAgIQFMjH8fFrkQsYRUvAZfL8DDANBgkqhkiG9w0BAQsFADBj
MQswCQYDVQQGEwJVUzETMBEGA1UECAwKQ2FsaWZvcm5pYTEWMBQGA1UEBwwNTW91
bnRhaW4gVmlldzEQMA4GA1UECgwHVGVzdCBDQTEVMBMGA1UEAwwMVGVzdCBSb290
IENBMCIYDzAwMDEwMTAxMDAwMDAwWhgPMDAwMTAxMDEwMDAwMDBaMBsxGTAXBgNV
BAMMEExlYWYgQ2VydGlmaWNhdGUwggEiMA0GCSqGSIb3DQEBAQUAA4IBDwAwggEK
AoIBAQCiVRmZF9Joj2IiQ+topqfn/1rdEOWWrQ334Z95u/Di2OnNzImxnobNU/jk
c1x5TEGBfMzJsdDKYos9iI4IqrrtNEmuza4dY/mMWAHCMDVB7z00vS2IdaTeygjB
st6wV5SE3GQHv1+BSXsBAmqd89xMcJgzCdIX0+JqdBi9eh5I4igstf+GFzPQJFnh
Qkgfbzf77/7nbwDtNLzATW/JTyBcv9Cmy1GUvF5gmCRoNmtHotKwDYHzbuX9bUci
aJ0MsFnfJXBM4qk+uM9H7PO3UQLplNoiLgfYXDu7cK640ig9MKZ83KispAoJfQZx
yXfl72SEN5zj/ALIeL/GjT+XQLYjAgMBAAGjgYAwfjAMBgNVHRMBAf8EAjAAMB0G
A1UdDgQWBBSaDPpgZzOq06kTblV/wWWO3gHtwDAfBgNVHSMEGDAWgBSbJguKmKm7
HbkfHOMaQDPtjheIqzAdBgNVHSUEFjAUBggrBgEFBQcDAQYIKwYBBQUHAwIwDwYD
VR0RBAgwBocEfwAAATANBgkqhkiG9w0BAQsFAAOCAQEAfIBGi6ZP+jh0fe5goIPY
v04KL04j+d2FkhNbdiek4RziG9eI81a9Cfggt+b8sEepvMMQ8oNaQook9hY9NiWW
aaHdOC6z9ohT4xV8au+iJfSb0v41sIFTgGPDSwdQzcHIw9kGdgKBq5mhi4JUVFka
/NjCuTPvg8OvOLjehlOUlDf2PFbeQll+HUW1l82vBGZU1TMWKQ+nEEHf/jnN57km
FgLhNMDeccmYGorwY1qKFcv5b0usl7QNnzYjHDYoKwh94INHbDWaEHmda8vLRt7Z
xgo9W8+RzOFvW7y83D59Lm1xEE0/m/iZtx7c+e2GK1DmaR+Rn0f0e3yqxLPiLczJ
Dg==
-----END CERTIFICATE-----
