-----BEGIN PRIVATE KEY-----
MIIEvQIBADANBgkqhkiG9w0BAQEFAASCBKcwggSjAgEAAoIBAQDJABG+o501DlYn
pIeZGdbtxuX0hUvuhTCO/+u+ZajABJAsejJ8tm5qRURXOguSG2u3nKqR9cA3r/47
aQHvkkYfLpF4lnL5X7lRmkOq8vWObvwaUuvwcsA3qwxWSd5u4sVOl/eSj0yzJDq0
Lb6QVPWlbWgrZyEdDuAxg7glVTWeJagK5IMI8b2yiis7oxLXFudztUg2E3UVkIMz
Gw55unskWdOnViQ0N3kFyXfbFcnojWNm2iJfQtHxjfHN+ydGaH/z4SpYh/0SHqnC
rj46J2fojyH/LFgn2MnskeK3kOLShpEcAbnRibrbrNMcDUi5vANq3s2+bhoinS0U
fs2v53/nAgMBAAECggEAFTIjrOXWCyVC4pVQE04NQy/JShrQYgu7jijgtEhGHlGc
3oPYVRxr0lsRlN0zISoxFsC3oAK5TWYKujsdkCTtrhYcEwpSf4efpEJPRnSufmGn
xiLebJG9QWGRQHwzr5/MTLhrzBG+ddmpMxzrzo6XBOXfqUwLyuOpsq8AOTeeGtoP
kTWtvOS2ODx6ID27GNcSNGO3haeLKCZaXnlE9RKRLFnBD4IEMycivA63uEpMBe13
PHjqc6cm5tL76TKmfZ5MCC9XRtK6NbqQpJwjet/oqr0TjM6Shz0HCSUufOqNsBjy
cnpCwb/GOvtDoV3ygUNvmUc3xZDf6e2eUc0eu1aYqQKBgQD+aXgQwUYklYreU5uK
dfOWvmR05E2ekJdsxyzxsuwpR0MaPPXiJlPYnChlvdSc+0SUDVmrv0xLrh0D0J54
khDI3dOxTncNGEEzj0+/f9fHxpSH8CxHxsvfbzRNyLS/8QgN/24PfXTVw8o3xftn
1IsLg0mWk9m70BTKqDEZyKTZ7QKBgQDKQUCgj8/uuF1DeJL8HaP2O9HPdAjaymia
X39NeYQdYKqCGf28b6GyACcZMGemo8+s3Y1k3EheHEEnnvUMok+ULKJ6LnqLRyTU
IjoBQ8LOq8lAKTjDcvVYy6pF6wGG1YsDJsY4M1ED9Wrc87Ns1WnVZEY9P9FlhBNl
OQVD3sP2owKBgQDTr+hycI8vs6qX8ZNzc0+a95LY3HplXMRSg6w29HyioCQKefzS
DrgnfU/z0C9P65cVZcJeMM+IDTkhSn4Bru/+Yu1ZFAPlRnBCOZXOrs5Z8Tb3oXUG
yDgtEve/XShgqWrdUtM+WlJT6BSjsb3NmEGV88jQXPeH2czjD23DmXrpxQKBgG2x
ZjOuy79VDoABbPZ/vOVXHDu/Wu4OyRywnoKOXTDxtIhLQGpqwO+hVZM7xXuDbKb8
oisJrdYczNmIRK9NeIuMibJqctwHAdprlboJ3iXo1YWO1dJrDtXR38973aAbQQG8
jdT9P/s9p2+eXLmyJWwurkmZyx+bukkz278rmmyxAoGARoR/vqPlOj3TAcFsks1c
HeI3bqblWu/dpeZ7MhYM90Xf3e0RxigcPNkVm9H1wEragh/WVRQpunysxaTVcnAL
xKf++lCNDCPFOXAhOxTGBGpS/IbrnLfAhDCdqBX2xkyJWNGu00JGe6gfJyIQiX1Z
+919aWiM78TlJC8psjZviRs=
-----END PRIVATE KEY-----
Certificate:
    Data:
        Version: 3 (0x2)
        Serial Number:
            14:c8:c7:f1:f1:6b:91:0b:18:45:4b:c0:65:f2:fc:23
        Signature Algorithm: sha256WithRSAEncryption
        Issuer: C=US, ST=California, L=Mountain View, O=Test CA, CN=Test Root CA
        Validity
            Not Before: Dec 20 00:00:00 2017 GMT
            Not After : Dec 20 00:00:00 2020 GMT
        Subject: C=US, ST=California, L=Mountain View, O=Test CA, CN=127.0.0.1
        Subject Public Key Info:
            Public Key Algorithm: rsaEncryption
                Public-Key: (2048 bit)
                Modulus:
                    00:c9:00:11:be:a3:9d:35:0e:56:27:a4:87:99:19:
                    d6:ed:c6:e5:f4:85:4b:ee:85:30:8e:ff:eb:be:65:
                    a8:c0:04:90:2c:7a:32:7c:b6:6e:6a:45:44:57:3a:
                    0b:92:1b:6b:b7:9c:aa:91:f5:c0:37:af:fe:3b:69:
                    01:ef:92:46:1f:2e:91:78:96:72:f9:5f:b9:51:9a:
                    43:aa:f2:f5:8e:6e:fc:1a:52:eb:f0:72:c0:37:ab:
                    0c:56:49:de:6e:e2:c5:4e:97:f7:92:8f:4c:b3:24:
                    3a:b4:2d:be:90:54:f5:a5:6d:68:2b:67:21:1d:0e:
                    e0:31:83:b8:25:55:35:9e:25:a8:0a:e4:83:08:f1:
                    bd:b2:8a:2b:3b:a3:12:d7:16:e7:73:b5:48:36:13:
                    75:15:90:83:33:1b:0e:79:ba:7b:24:59:d3:a7:56:
                    24:34:37:79:05:c9:77:db:15:c9:e8:8d:63:66:da:
                    22:5f:42:d1:f1:8d:f1:cd:fb:27:46:68:7f:f3:e1:
                    2a:58:87:fd:12:1e:a9:c2:ae:3e:3a:27:67:e8:8f:
                    21:ff:2c:58:27:d8:c9:ec:91:e2:b7:90:e2:d2:86:
                    91:1c:01:b9:d1:89:ba:db:ac:d3:1c:0d:48:b9:bc:
                    03:6a:de:cd:be:6e:1a:22:9d:2d:14:7e:cd:af:e7:
                    7f:e7
                Exponent: 65537 (0x10001)
        X509v3 extensions:
            X509v3 Basic Constraints: critical
                CA:FALSE
            X509v3 Subject Key Identifier: 
                ED:8D:2E:41:6F:59:A4:A8:A8:08:80:22:DA:52:E2:83:F8:05:A4:BE
            X509v3 Authority Key Identifier: 
                9B:26:0B:8A:98:A9:BB:1D:B9:1F:1C:E3:1A:40:33:ED:8E:17:88:AB
            X509v3 Extended Key Usage: 
                TLS Web Server Authentication, TLS Web Client Authentication
    Signature Algorithm: sha256WithRSAEncryption
    Signature Value:
        03:95:d0:e6:00:8e:80:67:9f:3a:5a:5b:51:57:ee:40:7b:fb:
        23:31:08:9b:a2:42:a8:3a:d8:d5:44:99:30:55:78:67:22:bb:
        a9:c0:52:6c:54:04:9a:4b:e2:03:7c:4a:de:a5:f9:22:cf:de:
        72:e3:9f:27:ae:41:67:5e:5b:88:e1:ff:94:fc:be:d6:a7:35:
        47:16:e4:94:4d:1b:ce:c4:ca:8f:bf:a5:7e:65:e8:6a:e0:15:
        6a:96:53:3f:34:61:ee:cd:32:e1:40:9c:9b:73:8a:9c:04:bd:
        38:14:d8:cc:fe:f3:54:2b:06:33:96:73:3a:f4:dc:dc:d4:67:
        bb:64:53:5d:44:54:51:fd:7a:4d:be:cf:30:92:fa:64:36:6c:
        ee:2e:e7:47:f0:1b:07:78:90:7f:04:68:1e:36:b9:2a:69:44:
        13:3e:05:98:1b:2b:0e:a6:98:72:e3:92:d7:d5:88:90:71:f9:
        7f:c5:fd:4f:a9:c5:74:82:af:15:d9:21:52:b4:74:c8:14:bd:
        37:e1:a2:2d:f9:5b:32:c7:12:01:61:a0:ec:44:94:cd:26:4b:
        81:ee:c0:5d:ee:60:0c:54:0f:46:a4:45:45:8f:15:00:fe:97:
        ba:fe:6e:da:20:62:fb:36:5b:fb:25:cd:f3:e1:85:dc:10:00:
        56:31:66:c3
-----BEGIN CERTIFICATE-----
MIIDvDCCAqSgAwIBAgIQFMjH8fFrkQsYRUvAZfL8IzANBgkqhkiG9w0BAQsFADBj
MQswCQYDVQQGEwJVUzETMBEGA1UECAwKQ2FsaWZvcm5pYTEWMBQGA1UEBwwNTW91
bnRhaW4gVmlldzEQMA4GA1UECgwHVGVzdCBDQTEVMBMGA1UEAwwMVGVzdCBSb290
IENBMB4XDTE3MTIyMDAwMDAwMFoXDTIwMTIyMDAwMDAwMFowYDELMAkGA1UEBhMC
VVMxEzARBgNVBAgMCkNhbGlmb3JuaWExFjAUBgNVBAcMDU1vdW50YWluIFZpZXcx
EDAOBgNVBAoMB1Rlc3QgQ0ExEjAQBgNVBAMMCTEyNy4wLjAuMTCCASIwDQYJKoZI
hvcNAQEBBQADggEPADCCAQoCggEBAMkAEb6jnTUOViekh5kZ1u3G5fSFS+6FMI7/
675lqMAEkCx6Mny2bmpFRFc6C5Iba7ecqpH1wDev/jtpAe+SRh8ukXiWcvlfuVGa
Q6ry9Y5u/BpS6/BywDerDFZJ3m7ixU6X95KPTLMkOrQtvpBU9aVtaCtnIR0O4DGD
uCVVNZ4lqArkgwjxvbKKKzujEtcW53O1SDYTdRWQgzMbDnm6eyRZ06dWJDQ3eQXJ
d9sVyeiNY2baIl9C0fGN8c37J0Zof/PhKliH/RIeqcKuPjonZ+iPIf8sWCfYyeyR
4reQ4tKGkRwBudGJutus0xwNSLm8A2rezb5uGiKdLRR+za/nf+cCAwEAAaNvMG0w
DAYDVR0TAQH/BAIwADAdBgNVHQ4EFgQU7Y0uQW9ZpKioCIAi2lLig/gFpL4wHwYD
VR0jBBgwFoAUmyYLipipux25HxzjGkAz7Y4XiKswHQYDVR0lBBYwFAYIKwYBBQUH
AwEGCCsGAQUFBwMCMA0GCSqGSIb3DQEBCwUAA4IBAQADldDmAI6AZ586WltRV+5A
e/sjMQibokKoOtjVRJkwVXhnIrupwFJsVASaS+IDfErepfkiz95y458nrkFnXluI
4f+U/L7WpzVHFuSUTRvOxMqPv6V+Zehq4BVqllM/NGHuzTLhQJybc4qcBL04FNjM
/vNUKwYzlnM69Nzc1Ge7ZFNdRFRR/XpNvs8wkvpkNmzuLudH8BsHeJB/BGgeNrkq
aUQTPgWYGysOpphy45LX1YiQcfl/xf1PqcV0gq8V2SFStHTIFL034aIt+VsyxxIB
YaDsRJTNJkuB7sBd7mAMVA9GpEVFjxUA/pe6/m7aIGL7Nlv7Jc3z4YXcEABWMWbD
-----END CERTIFICATE-----
