Certificate:
    Data:
        Version: 3 (0x2)
        Serial Number:
            63:7b:eb:08:56:a8:62:27:35:8c:aa:b1:c3:cc:10:de:4c:b5:52:94
        Signature Algorithm: sha256WithRSAEncryption
        Issuer: CN=Test Dup-Hash Root CA
        Validity
            Not Before: Mar 28 21:31:21 2025 GMT
            Not After : Mar 26 21:31:21 2035 GMT
        Subject: CN=Test Dup-Hash Root CA
        Subject Public Key Info:
            Public Key Algorithm: rsaEncryption
                Public-Key: (2048 bit)
                Modulus:
                    00:ac:81:a4:8d:11:4c:ce:84:ea:89:f8:22:13:0a:
                    4f:36:9d:9d:dc:68:58:34:2a:75:55:91:8d:b7:41:
                    83:30:18:47:5d:54:d1:f2:80:fd:ce:82:98:e0:49:
                    cf:c1:7f:14:25:f1:29:72:11:43:14:96:01:1c:02:
                    75:48:fe:5e:5a:57:5e:0e:88:a8:eb:47:85:c7:79:
                    2f:f5:30:c7:dd:0b:9c:03:94:68:dc:e4:a1:d6:dc:
                    0f:b6:59:73:40:5b:0c:3f:11:5d:46:70:6f:0e:74:
                    38:9c:bb:11:80:9c:f3:c6:1c:4b:6f:7a:c1:cd:34:
                    96:fa:0c:fd:bf:62:4a:a4:5e:6e:f0:6f:e3:f3:98:
                    9a:98:6c:e8:71:f2:e9:b8:48:b6:75:f8:ec:34:7a:
                    07:c3:92:59:be:e5:79:16:8d:9a:c8:d4:fc:4a:0b:
                    29:b2:c8:31:ec:8f:d1:4e:43:d4:95:21:a0:09:1a:
                    c0:f1:ef:c7:5d:a2:d5:e8:d0:e0:a6:4d:aa:74:c8:
                    09:b2:2d:c5:0e:bf:e2:a2:70:b5:da:71:76:26:ca:
                    b7:c0:f2:9d:b3:c2:43:9e:e5:bb:97:11:2a:7d:22:
                    bb:84:a0:ff:66:85:fe:2c:0f:eb:3a:f6:64:30:28:
                    62:ce:cc:11:52:f7:20:dc:b4:f1:17:1d:7c:ad:ba:
                    ad:a5
                Exponent: 65537 (0x10001)
        X509v3 extensions:
            X509v3 Basic Constraints: critical
                CA:TRUE
            X509v3 Subject Key Identifier: 
                2A:4D:74:C5:7F:12:60:2F:53:61:B2:73:CA:39:FE:5C:14:4F:A6:0D
            X509v3 Key Usage: critical
                Certificate Sign, CRL Sign
    Signature Algorithm: sha256WithRSAEncryption
    Signature Value:
        2a:5d:53:1d:4f:7f:1e:3c:cd:ed:60:61:ab:6a:8a:af:b5:74:
        cb:9b:9c:e1:9d:84:c2:40:42:b5:33:66:f3:8b:a5:7a:cc:b9:
        39:f8:ee:a6:12:7c:aa:f5:32:3a:18:1a:25:b6:93:97:45:67:
        64:55:0c:de:aa:ff:d2:3b:22:ab:a7:1c:86:52:ef:d6:a8:17:
        cc:e9:48:14:78:b6:58:90:4d:1f:e3:f5:85:67:8b:2a:98:fa:
        ff:ec:73:1c:f5:8a:0f:3f:9c:92:78:1d:53:9f:91:b3:5b:ab:
        a3:5d:70:55:40:ad:86:90:43:bf:c4:3c:76:be:f4:10:5c:6a:
        30:1b:50:1e:8c:2f:76:5c:86:a9:09:b2:43:0c:6c:0a:ba:a8:
        87:04:83:55:1b:bb:d6:b7:1f:ae:1b:ae:bc:99:70:71:92:8c:
        40:35:02:cb:12:e1:42:f3:02:78:85:6e:96:22:22:fe:5c:ad:
        f3:6d:4f:31:a3:a0:e7:8b:b2:a5:d8:78:b1:a6:af:b8:34:45:
        f9:5c:f8:8b:de:e2:00:4a:5e:d6:73:46:27:d7:90:f1:ef:80:
        d2:a4:26:f2:14:51:3a:30:7c:6c:5a:7d:fa:47:86:e1:9b:07:
        3c:57:3a:25:2b:e8:94:f0:2b:73:7e:8c:6d:32:4e:9b:ee:a9:
        fe:76:c1:88
-----BEGIN CERTIFICATE-----
MIIDEDCCAfigAwIBAgIUY3vrCFaoYic1jKqxw8wQ3ky1UpQwDQYJKoZIhvcNAQEL
BQAwIDEeMBwGA1UEAwwVVGVzdCBEdXAtSGFzaCBSb290IENBMB4XDTI1MDMyODIx
MzEyMVoXDTM1MDMyNjIxMzEyMVowIDEeMBwGA1UEAwwVVGVzdCBEdXAtSGFzaCBS
b290IENBMIIBIjANBgkqhkiG9w0BAQEFAAOCAQ8AMIIBCgKCAQEArIGkjRFMzoTq
ifgiEwpPNp2d3GhYNCp1VZGNt0GDMBhHXVTR8oD9zoKY4EnPwX8UJfEpchFDFJYB
HAJ1SP5eWldeDoio60eFx3kv9TDH3QucA5Ro3OSh1twPtllzQFsMPxFdRnBvDnQ4
nLsRgJzzxhxLb3rBzTSW+gz9v2JKpF5u8G/j85iamGzocfLpuEi2dfjsNHoHw5JZ
vuV5Fo2ayNT8Sgspssgx7I/RTkPUlSGgCRrA8e/HXaLV6NDgpk2qdMgJsi3FDr/i
onC12nF2Jsq3wPKds8JDnuW7lxEqfSK7hKD/ZoX+LA/rOvZkMChizswRUvcg3LTx
Fx18rbqtpQIDAQABo0IwQDAPBgNVHRMBAf8EBTADAQH/MB0GA1UdDgQWBBQqTXTF
fxJgL1NhsnPKOf5cFE+mDTAOBgNVHQ8BAf8EBAMCAQYwDQYJKoZIhvcNAQELBQAD
ggEBACpdUx1Pfx48ze1gYatqiq+1dMubnOGdhMJAQrUzZvOLpXrMuTn47qYSfKr1
MjoYGiW2k5dFZ2RVDN6q/9I7IqunHIZS79aoF8zpSBR4tliQTR/j9YVniyqY+v/s
cxz1ig8/nJJ4HVOfkbNbq6NdcFVArYaQQ7/EPHa+9BBcajAbUB6ML3ZchqkJskMM
bAq6qIcEg1Ubu9a3H64brryZcHGSjEA1AssS4ULzAniFbpYiIv5crfNtTzGjoOeL
sqXYeLGmr7g0Rflc+Ive4gBKXtZzRifXkPHvgNKkJvIUUTowfGxaffpHhuGbBzxX
OiUr6JTwK3N+jG0yTpvuqf52wYg=
-----END CERTIFICATE-----
