Certificate:
    Data:
        Version: 3 (0x2)
        Serial Number: 1 (0x1)
        Signature Algorithm: sha256WithRSAEncryption
        Issuer: CN=Test Dup-Hash Root CA
        Validity
            Not Before: Mar 28 21:31:21 2025 GMT
            Not After : Mar 26 21:31:21 2035 GMT
        Subject: C=US, ST=California, L=Mountain View, O=Test CA, CN=127.0.0.1
        Subject Public Key Info:
            Public Key Algorithm: rsaEncryption
                Public-Key: (2048 bit)
                Modulus:
                    00:a3:e4:05:30:f0:78:66:ae:d9:e0:81:b0:35:ca:
                    39:25:2e:7b:27:a4:f1:0c:17:0d:79:de:4e:1b:62:
                    72:cb:aa:fe:d5:31:23:2a:d7:26:bd:76:ce:e3:d9:
                    02:29:8c:7e:66:c2:99:f9:8e:be:76:92:57:14:a2:
                    9f:e6:30:30:d3:2d:e5:80:6c:92:32:38:18:3b:07:
                    88:22:91:50:b3:22:2c:0f:a9:d8:72:af:ae:30:db:
                    33:4e:5e:1a:27:db:d3:e7:ea:e8:03:94:c0:6a:0b:
                    33:d0:e0:4a:d7:58:fe:e5:2c:3e:0d:c9:43:2f:94:
                    d8:22:a4:24:30:ed:32:d2:02:86:aa:4c:c6:66:36:
                    7f:a6:7d:c4:3a:24:ba:5d:df:6f:1f:67:ab:43:46:
                    0a:9c:eb:0e:4c:9c:4b:6f:1c:e1:62:ae:03:38:53:
                    21:23:eb:73:fc:89:96:60:8e:7c:64:b3:90:1c:19:
                    72:91:88:17:bb:46:58:b1:50:63:ed:b3:c0:ed:4f:
                    32:30:f6:29:96:47:de:73:74:a8:ab:e6:4a:fe:11:
                    98:99:12:df:a2:4f:2e:b7:a2:64:42:9f:8b:c9:0f:
                    07:64:6d:40:65:03:85:a6:14:02:9b:f0:ca:f8:92:
                    23:20:8e:f4:78:df:b5:00:26:be:a0:ad:ba:6d:f1:
                    14:3b
                Exponent: 65537 (0x10001)
        X509v3 extensions:
            X509v3 Basic Constraints: critical
                CA:FALSE
            X509v3 Subject Key Identifier: 
                74:60:31:1E:93:79:FD:1D:FB:56:68:81:12:9E:92:C7:83:30:43:15
            X509v3 Authority Key Identifier: 
                2A:4D:74:C5:7F:12:60:2F:53:61:B2:73:CA:39:FE:5C:14:4F:A6:0D
            X509v3 Extended Key Usage: 
                TLS Web Server Authentication, TLS Web Client Authentication
            X509v3 Subject Alternative Name: 
                IP Address:127.0.0.1
    Signature Algorithm: sha256WithRSAEncryption
    Signature Value:
        25:5d:58:2b:64:43:98:3e:d7:8d:1b:4c:1d:f0:11:cf:cd:0e:
        24:12:1c:f5:71:59:c9:e2:b8:6d:2d:36:a7:d5:7f:2a:cd:df:
        72:b7:eb:f7:aa:85:88:70:75:20:3b:f3:11:4c:8b:74:d5:88:
        8e:cc:cc:8a:8a:fa:2f:df:46:74:8e:8b:59:20:2d:25:0e:ee:
        70:ed:e8:99:83:b9:62:cc:e6:df:2b:bf:fd:ce:c4:a2:8b:47:
        9b:c5:61:57:61:02:58:78:90:a9:7c:f1:1c:77:26:38:f2:ee:
        e3:d9:7e:5b:44:16:28:46:c3:46:e1:8b:1d:85:4c:47:74:bd:
        d2:a1:3b:14:37:35:37:51:88:bf:c6:e2:49:fe:25:62:21:81:
        8e:3a:58:89:43:ae:95:a8:52:ee:35:dd:aa:16:29:71:92:92:
        9c:c0:66:1f:a0:22:53:7c:be:08:12:65:fc:a8:f8:cc:b8:71:
        77:c8:b1:c4:7d:60:d8:57:0a:d5:41:ad:ec:1b:28:47:fd:97:
        88:93:38:29:d3:65:74:c9:70:69:6a:9d:3c:3e:6b:28:92:7d:
        24:dc:68:83:00:19:a7:3a:5f:cf:27:ed:58:27:84:ac:27:cd:
        3f:10:00:de:f7:86:a8:d9:1e:b3:ee:d4:74:36:35:d9:1e:65:
        56:83:1a:2e
-----BEGIN CERTIFICATE-----
MIIDfDCCAmSgAwIBAgIBATANBgkqhkiG9w0BAQsFADAgMR4wHAYDVQQDDBVUZXN0
IER1cC1IYXNoIFJvb3QgQ0EwHhcNMjUwMzI4MjEzMTIxWhcNMzUwMzI2MjEzMTIx
WjBgMQswCQYDVQQGEwJVUzETMBEGA1UECAwKQ2FsaWZvcm5pYTEWMBQGA1UEBwwN
TW91bnRhaW4gVmlldzEQMA4GA1UECgwHVGVzdCBDQTESMBAGA1UEAwwJMTI3LjAu
MC4xMIIBIjANBgkqhkiG9w0BAQEFAAOCAQ8AMIIBCgKCAQEAo+QFMPB4Zq7Z4IGw
Nco5JS57J6TxDBcNed5OG2Jyy6r+1TEjKtcmvXbO49kCKYx+ZsKZ+Y6+dpJXFKKf
5jAw0y3lgGySMjgYOweIIpFQsyIsD6nYcq+uMNszTl4aJ9vT5+roA5TAagsz0OBK
11j+5Sw+DclDL5TYIqQkMO0y0gKGqkzGZjZ/pn3EOiS6Xd9vH2erQ0YKnOsOTJxL
bxzhYq4DOFMhI+tz/ImWYI58ZLOQHBlykYgXu0ZYsVBj7bPA7U8yMPYplkfec3So
q+ZK/hGYmRLfok8ut6JkQp+LyQ8HZG1AZQOFphQCm/DK+JIjII70eN+1ACa+oK26
bfEUOwIDAQABo4GAMH4wDAYDVR0TAQH/BAIwADAdBgNVHQ4EFgQUdGAxHpN5/R37
VmiBEp6Sx4MwQxUwHwYDVR0jBBgwFoAUKk10xX8SYC9TYbJzyjn+XBRPpg0wHQYD
VR0lBBYwFAYIKwYBBQUHAwEGCCsGAQUFBwMCMA8GA1UdEQQIMAaHBH8AAAEwDQYJ
KoZIhvcNAQELBQADggEBACVdWCtkQ5g+140bTB3wEc/NDiQSHPVxWcniuG0tNqfV
fyrN33K36/eqhYhwdSA78xFMi3TViI7MzIqK+i/fRnSOi1kgLSUO7nDt6JmDuWLM
5t8rv/3OxKKLR5vFYVdhAlh4kKl88Rx3Jjjy7uPZfltEFihGw0bhix2FTEd0vdKh
OxQ3NTdRiL/G4kn+JWIhgY46WIlDrpWoUu413aoWKXGSkpzAZh+gIlN8vggSZfyo
+My4cXfIscR9YNhXCtVBrewbKEf9l4iTOCnTZXTJcGlqnTw+ayiSfSTcaIMAGac6
X88n7VgnhKwnzT8QAN73hqjZHrPu1HQ2NdkeZVaDGi4=
-----END CERTIFICATE-----
