Certificate:
    Data:
        Version: 3 (0x2)
        Serial Number:
            41:4e:fe:fd:ef:aa:82:70:bf:67:8e:6d:2b:6e:51:e4:fd:c9:3d:58
        Signature Algorithm: md5WithRSAEncryption
        Issuer: CN=Test Dup-Hash Root CA
        Validity
            Not Before: Mar 28 21:31:21 2025 GMT
            Not After : Mar 26 21:31:21 2035 GMT
        Subject: CN=Test Dup-Hash Root CA
        Subject Public Key Info:
            Public Key Algorithm: rsaEncryption
                Public-Key: (2048 bit)
                Modulus:
                    00:ac:81:a4:8d:11:4c:ce:84:ea:89:f8:22:13:0a:
                    4f:36:9d:9d:dc:68:58:34:2a:75:55:91:8d:b7:41:
                    83:30:18:47:5d:54:d1:f2:80:fd:ce:82:98:e0:49:
                    cf:c1:7f:14:25:f1:29:72:11:43:14:96:01:1c:02:
                    75:48:fe:5e:5a:57:5e:0e:88:a8:eb:47:85:c7:79:
                    2f:f5:30:c7:dd:0b:9c:03:94:68:dc:e4:a1:d6:dc:
                    0f:b6:59:73:40:5b:0c:3f:11:5d:46:70:6f:0e:74:
                    38:9c:bb:11:80:9c:f3:c6:1c:4b:6f:7a:c1:cd:34:
                    96:fa:0c:fd:bf:62:4a:a4:5e:6e:f0:6f:e3:f3:98:
                    9a:98:6c:e8:71:f2:e9:b8:48:b6:75:f8:ec:34:7a:
                    07:c3:92:59:be:e5:79:16:8d:9a:c8:d4:fc:4a:0b:
                    29:b2:c8:31:ec:8f:d1:4e:43:d4:95:21:a0:09:1a:
                    c0:f1:ef:c7:5d:a2:d5:e8:d0:e0:a6:4d:aa:74:c8:
                    09:b2:2d:c5:0e:bf:e2:a2:70:b5:da:71:76:26:ca:
                    b7:c0:f2:9d:b3:c2:43:9e:e5:bb:97:11:2a:7d:22:
                    bb:84:a0:ff:66:85:fe:2c:0f:eb:3a:f6:64:30:28:
                    62:ce:cc:11:52:f7:20:dc:b4:f1:17:1d:7c:ad:ba:
                    ad:a5
                Exponent: 65537 (0x10001)
        X509v3 extensions:
            X509v3 Basic Constraints: critical
                CA:TRUE
            X509v3 Subject Key Identifier: 
                2A:4D:74:C5:7F:12:60:2F:53:61:B2:73:CA:39:FE:5C:14:4F:A6:0D
            X509v3 Key Usage: critical
                Certificate Sign, CRL Sign
    Signature Algorithm: md5WithRSAEncryption
    Signature Value:
        15:ee:ab:c0:47:c3:bf:cf:c5:a6:83:13:28:e6:a8:ed:4a:24:
        fc:fa:48:40:72:ba:f2:34:37:51:4d:e5:80:1e:87:7b:67:85:
        db:3d:0b:fc:9f:7e:c2:7d:40:80:34:c0:bd:9f:ef:23:2e:e4:
        96:36:c8:bf:60:0c:06:e7:12:da:2f:87:56:a8:d3:e7:05:1b:
        b7:7d:82:96:8a:5f:5b:f1:10:4e:69:8d:01:ab:ef:f9:42:b2:
        5b:b5:ef:7f:5a:48:2e:0b:bf:18:54:c5:77:91:5b:d9:9d:98:
        d9:e7:79:3a:74:11:e8:df:27:0f:1a:ef:70:52:97:7d:dc:3d:
        37:fc:76:1a:50:eb:70:1f:64:6e:d7:03:26:c4:e8:33:f1:ef:
        cb:d2:12:41:35:d7:bd:b8:cc:c2:fe:4c:23:6e:95:9b:b2:db:
        fd:5a:2a:f3:9d:a7:cf:52:39:cc:25:9e:9c:0d:38:10:6b:20:
        90:55:dd:82:4f:28:6a:55:6d:99:46:f4:45:cc:42:45:bd:cd:
        ad:da:7c:5c:2b:7f:77:41:c3:1d:08:31:d9:ac:04:b8:ab:4c:
        48:53:3a:97:ac:9f:42:f8:70:7d:51:84:02:3b:21:4c:6b:33:
        06:b7:12:2c:14:b9:36:08:f4:fb:5b:3b:10:03:87:97:39:bc:
        cb:a6:ce:35
-----BEGIN CERTIFICATE-----
MIIDEDCCAfigAwIBAgIUQU7+/e+qgnC/Z45tK25R5P3JPVgwDQYJKoZIhvcNAQEE
BQAwIDEeMBwGA1UEAwwVVGVzdCBEdXAtSGFzaCBSb290IENBMB4XDTI1MDMyODIx
MzEyMVoXDTM1MDMyNjIxMzEyMVowIDEeMBwGA1UEAwwVVGVzdCBEdXAtSGFzaCBS
b290IENBMIIBIjANBgkqhkiG9w0BAQEFAAOCAQ8AMIIBCgKCAQEArIGkjRFMzoTq
ifgiEwpPNp2d3GhYNCp1VZGNt0GDMBhHXVTR8oD9zoKY4EnPwX8UJfEpchFDFJYB
HAJ1SP5eWldeDoio60eFx3kv9TDH3QucA5Ro3OSh1twPtllzQFsMPxFdRnBvDnQ4
nLsRgJzzxhxLb3rBzTSW+gz9v2JKpF5u8G/j85iamGzocfLpuEi2dfjsNHoHw5JZ
vuV5Fo2ayNT8Sgspssgx7I/RTkPUlSGgCRrA8e/HXaLV6NDgpk2qdMgJsi3FDr/i
onC12nF2Jsq3wPKds8JDnuW7lxEqfSK7hKD/ZoX+LA/rOvZkMChizswRUvcg3LTx
Fx18rbqtpQIDAQABo0IwQDAPBgNVHRMBAf8EBTADAQH/MB0GA1UdDgQWBBQqTXTF
fxJgL1NhsnPKOf5cFE+mDTAOBgNVHQ8BAf8EBAMCAQYwDQYJKoZIhvcNAQEEBQAD
ggEBABXuq8BHw7/PxaaDEyjmqO1KJPz6SEByuvI0N1FN5YAeh3tnhds9C/yffsJ9
QIA0wL2f7yMu5JY2yL9gDAbnEtovh1ao0+cFG7d9gpaKX1vxEE5pjQGr7/lCslu1
739aSC4LvxhUxXeRW9mdmNnneTp0EejfJw8a73BSl33cPTf8dhpQ63AfZG7XAybE
6DPx78vSEkE11724zML+TCNulZuy2/1aKvOdp89SOcwlnpwNOBBrIJBV3YJPKGpV
bZlG9EXMQkW9za3afFwrf3dBwx0IMdmsBLirTEhTOpesn0L4cH1RhAI7IUxrMwa3
EiwUuTYI9PtbOxADh5c5vMumzjU=
-----END CERTIFICATE-----
