Certificate:
    Data:
        Version: 3 (0x2)
        Serial Number:
            5d:35:ab:a2:71:60:fd:6f:c5:ff:2e:c8:b7:3c:ca:15:f6:eb:70:9f
        Signature Algorithm: sha256WithRSAEncryption
        Issuer: CN=Test Dup-Hash Root CA
        Validity
            Not Before: Nov 15 00:23:52 2025 GMT
            Not After : Nov 13 00:23:52 2035 GMT
        Subject: CN=Test Dup-Hash Root CA
        Subject Public Key Info:
            Public Key Algorithm: rsaEncryption
                Public-Key: (2048 bit)
                Modulus:
                    00:a0:ee:59:41:fc:c8:16:4b:12:62:a9:39:1f:8b:
                    ce:ac:cb:6e:b2:15:a8:9d:0c:ad:a9:04:7b:8f:98:
                    e1:56:34:2d:cc:a6:ae:63:d3:08:44:06:6b:0d:20:
                    be:b1:ac:8c:d9:83:fa:ab:c4:1b:7b:68:d2:d7:b5:
                    96:bc:36:d1:62:26:c6:e1:7c:5f:bc:e4:46:30:78:
                    4a:f9:b0:6f:cc:6d:c7:6d:4d:cb:7d:f8:de:58:67:
                    69:d8:8d:65:b3:3d:b3:19:b7:ad:e1:a0:5f:a7:c2:
                    70:0d:09:27:8f:0a:fe:ea:7d:1d:56:b7:06:3b:f5:
                    88:07:07:fc:49:c5:c0:2e:df:55:30:25:c0:e0:36:
                    39:03:fd:f9:3a:18:e6:cd:bf:e9:69:7c:f5:c5:40:
                    09:a3:00:43:5d:29:e8:f1:51:8a:f2:8d:0e:61:f8:
                    59:1b:03:8e:58:eb:22:e7:5a:55:b3:11:01:13:a0:
                    f3:a7:0b:41:76:23:41:29:5b:d0:f5:2c:c5:c7:4b:
                    10:f1:ae:fe:4d:2c:d5:86:41:67:81:2a:76:d0:8d:
                    03:e2:67:fa:48:90:24:b5:6d:7f:25:f8:3f:94:7b:
                    64:be:c4:fa:a5:ff:e8:34:cc:aa:4c:48:95:48:6b:
                    6a:c0:4f:c0:92:09:00:9b:cd:30:a8:0b:a6:60:5b:
                    eb:fd
                Exponent: 65537 (0x10001)
        X509v3 extensions:
            X509v3 Basic Constraints: critical
                CA:TRUE
            X509v3 Subject Key Identifier: 
                52:11:63:F0:47:21:63:65:37:8F:35:04:C6:39:6B:E0:4E:3E:89:0C
            X509v3 Key Usage: critical
                Certificate Sign, CRL Sign
    Signature Algorithm: sha256WithRSAEncryption
    Signature Value:
        0b:19:05:e2:c6:e3:c7:60:f3:ef:63:91:18:1f:c2:a5:42:73:
        11:2f:9c:98:0f:3a:83:94:a9:5c:a3:0a:1e:69:5a:ae:d7:38:
        46:96:78:fe:61:0d:94:2a:80:3a:df:4d:e6:44:8b:45:88:66:
        e3:8f:4d:b7:9e:6a:9c:cf:9a:4c:27:b8:ac:70:a8:56:ec:d5:
        9c:54:30:05:2d:19:66:b6:cb:a3:62:c7:4e:76:d9:84:18:5f:
        0f:a3:97:2f:ec:45:ca:c8:66:f4:52:d3:44:6c:72:ba:a8:e6:
        a9:83:f8:7d:4b:4c:be:a9:f3:5d:ac:ca:f2:35:e5:16:70:5d:
        d7:5e:aa:a3:6e:21:58:13:f7:73:d4:b2:09:71:42:04:21:ea:
        3e:f0:3d:be:61:6b:de:ca:03:1b:b1:63:e9:de:89:e3:7d:9b:
        a1:7e:f6:6b:13:f6:42:b0:5c:63:a9:64:6e:d1:07:a4:e0:f6:
        c4:00:3d:2d:b7:8e:ef:fe:25:a7:c5:df:15:4a:82:bd:e0:12:
        36:cd:72:f1:29:54:f7:36:d4:7e:49:91:04:0d:99:1b:bf:84:
        a3:8e:a1:6f:c6:e3:76:bd:85:6e:a8:cb:d2:49:21:c8:c9:5b:
        5c:96:e0:7b:fe:c8:c9:1f:f9:9c:17:09:c6:e4:e5:d9:7c:1c:
        91:86:e8:36
-----BEGIN CERTIFICATE-----
MIIDEDCCAfigAwIBAgIUXTWronFg/W/F/y7ItzzKFfbrcJ8wDQYJKoZIhvcNAQEL
BQAwIDEeMBwGA1UEAwwVVGVzdCBEdXAtSGFzaCBSb290IENBMB4XDTI1MTExNTAw
MjM1MloXDTM1MTExMzAwMjM1MlowIDEeMBwGA1UEAwwVVGVzdCBEdXAtSGFzaCBS
b290IENBMIIBIjANBgkqhkiG9w0BAQEFAAOCAQ8AMIIBCgKCAQEAoO5ZQfzIFksS
Yqk5H4vOrMtushWonQytqQR7j5jhVjQtzKauY9MIRAZrDSC+sayM2YP6q8Qbe2jS
17WWvDbRYibG4XxfvORGMHhK+bBvzG3HbU3LffjeWGdp2I1lsz2zGbet4aBfp8Jw
DQknjwr+6n0dVrcGO/WIBwf8ScXALt9VMCXA4DY5A/35Ohjmzb/paXz1xUAJowBD
XSno8VGK8o0OYfhZGwOOWOsi51pVsxEBE6DzpwtBdiNBKVvQ9SzFx0sQ8a7+TSzV
hkFngSp20I0D4mf6SJAktW1/Jfg/lHtkvsT6pf/oNMyqTEiVSGtqwE/AkgkAm80w
qAumYFvr/QIDAQABo0IwQDAPBgNVHRMBAf8EBTADAQH/MB0GA1UdDgQWBBRSEWPw
RyFjZTePNQTGOWvgTj6JDDAOBgNVHQ8BAf8EBAMCAQYwDQYJKoZIhvcNAQELBQAD
ggEBAAsZBeLG48dg8+9jkRgfwqVCcxEvnJgPOoOUqVyjCh5pWq7XOEaWeP5hDZQq
gDrfTeZEi0WIZuOPTbeeapzPmkwnuKxwqFbs1ZxUMAUtGWa2y6Nix0522YQYXw+j
ly/sRcrIZvRS00Rscrqo5qmD+H1LTL6p812syvI15RZwXddeqqNuIVgT93PUsglx
QgQh6j7wPb5ha97KAxuxY+neieN9m6F+9msT9kKwXGOpZG7RB6Tg9sQAPS23ju/+
JafF3xVKgr3gEjbNcvEpVPc21H5JkQQNmRu/hKOOoW/G43a9hW6oy9JJIcjJW1yW
4Hv+yMkf+ZwXCcbk5dl8HJGG6DY=
-----END CERTIFICATE-----
