Certificate:
    Data:
        Version: 3 (0x2)
        Serial Number: 1 (0x1)
        Signature Algorithm: sha256WithRSAEncryption
        Issuer: CN=Test Dup-Hash Root CA
        Validity
            Not Before: Nov 15 00:23:52 2025 GMT
            Not After : Nov 13 00:23:52 2035 GMT
        Subject: C=US, ST=California, L=Mountain View, O=Test CA, CN=127.0.0.1
        Subject Public Key Info:
            Public Key Algorithm: rsaEncryption
                Public-Key: (2048 bit)
                Modulus:
                    00:a2:55:19:99:17:d2:68:8f:62:22:43:eb:68:a6:
                    a7:e7:ff:5a:dd:10:e5:96:ad:0d:f7:e1:9f:79:bb:
                    f0:e2:d8:e9:cd:cc:89:b1:9e:86:cd:53:f8:e4:73:
                    5c:79:4c:41:81:7c:cc:c9:b1:d0:ca:62:8b:3d:88:
                    8e:08:aa:ba:ed:34:49:ae:cd:ae:1d:63:f9:8c:58:
                    01:c2:30:35:41:ef:3d:34:bd:2d:88:75:a4:de:ca:
                    08:c1:b2:de:b0:57:94:84:dc:64:07:bf:5f:81:49:
                    7b:01:02:6a:9d:f3:dc:4c:70:98:33:09:d2:17:d3:
                    e2:6a:74:18:bd:7a:1e:48:e2:28:2c:b5:ff:86:17:
                    33:d0:24:59:e1:42:48:1f:6f:37:fb:ef:fe:e7:6f:
                    00:ed:34:bc:c0:4d:6f:c9:4f:20:5c:bf:d0:a6:cb:
                    51:94:bc:5e:60:98:24:68:36:6b:47:a2:d2:b0:0d:
                    81:f3:6e:e5:fd:6d:47:22:68:9d:0c:b0:59:df:25:
                    70:4c:e2:a9:3e:b8:cf:47:ec:f3:b7:51:02:e9:94:
                    da:22:2e:07:d8:5c:3b:bb:70:ae:b8:d2:28:3d:30:
                    a6:7c:dc:a8:ac:a4:0a:09:7d:06:71:c9:77:e5:ef:
                    64:84:37:9c:e3:fc:02:c8:78:bf:c6:8d:3f:97:40:
                    b6:23
                Exponent: 65537 (0x10001)
        X509v3 extensions:
            X509v3 Basic Constraints: critical
                CA:FALSE
            X509v3 Subject Key Identifier: 
                9A:0C:FA:60:67:33:AA:D3:A9:13:6E:55:7F:C1:65:8E:DE:01:ED:C0
            X509v3 Authority Key Identifier: 
                52:11:63:F0:47:21:63:65:37:8F:35:04:C6:39:6B:E0:4E:3E:89:0C
            X509v3 Extended Key Usage: 
                TLS Web Server Authentication, TLS Web Client Authentication
            X509v3 Subject Alternative Name: 
                IP Address:127.0.0.1
    Signature Algorithm: sha256WithRSAEncryption
    Signature Value:
        24:36:4e:f2:3b:6f:af:17:4a:80:0f:64:15:54:df:d2:a4:25:
        c0:b1:6c:f5:32:ed:b0:0b:5a:f2:e3:a5:ef:06:cc:91:db:1e:
        46:52:09:72:cc:16:bb:4a:e5:15:19:c8:f2:43:59:7e:ab:5b:
        2a:9e:23:84:3d:1e:9a:a0:73:13:25:ff:bf:84:7c:00:94:46:
        60:da:ef:e3:e7:c8:66:6e:ee:a1:51:ac:e0:67:6c:81:7e:90:
        93:05:3b:28:d9:d1:42:5c:88:43:46:f0:40:b6:c7:91:5a:18:
        38:cc:57:a7:91:22:33:71:ce:1a:07:75:34:12:b2:a2:f0:10:
        e7:16:75:4f:29:06:4a:80:98:aa:e0:d8:7d:59:07:6f:95:20:
        15:84:1c:38:42:13:54:b0:c5:33:18:48:f6:d4:a0:3c:8e:d0:
        8f:f4:5c:4b:4c:da:f5:81:2e:2a:a7:09:f1:b5:fc:34:00:62:
        3a:97:63:5d:56:3a:19:f3:b2:d2:e4:92:90:a0:a4:12:f4:10:
        63:dc:ab:1c:86:14:19:02:aa:11:46:4c:fb:ff:c1:62:9a:32:
        0e:81:06:4c:16:00:6b:94:84:e5:61:a2:2d:24:4b:82:63:41:
        23:31:cd:6d:04:df:9d:75:5f:76:ee:80:d4:f3:7a:82:aa:2d:
        31:b0:96:27
-----BEGIN CERTIFICATE-----
MIIDfDCCAmSgAwIBAgIBATANBgkqhkiG9w0BAQsFADAgMR4wHAYDVQQDDBVUZXN0
IER1cC1IYXNoIFJvb3QgQ0EwHhcNMjUxMTE1MDAyMzUyWhcNMzUxMTEzMDAyMzUy
WjBgMQswCQYDVQQGEwJVUzETMBEGA1UECAwKQ2FsaWZvcm5pYTEWMBQGA1UEBwwN
TW91bnRhaW4gVmlldzEQMA4GA1UECgwHVGVzdCBDQTESMBAGA1UEAwwJMTI3LjAu
MC4xMIIBIjANBgkqhkiG9w0BAQEFAAOCAQ8AMIIBCgKCAQEAolUZmRfSaI9iIkPr
aKan5/9a3RDllq0N9+Gfebvw4tjpzcyJsZ6GzVP45HNceUxBgXzMybHQymKLPYiO
CKq67TRJrs2uHWP5jFgBwjA1Qe89NL0tiHWk3soIwbLesFeUhNxkB79fgUl7AQJq
nfPcTHCYMwnSF9PianQYvXoeSOIoLLX/hhcz0CRZ4UJIH283++/+528A7TS8wE1v
yU8gXL/QpstRlLxeYJgkaDZrR6LSsA2B827l/W1HImidDLBZ3yVwTOKpPrjPR+zz
t1EC6ZTaIi4H2Fw7u3CuuNIoPTCmfNyorKQKCX0Gccl35e9khDec4/wCyHi/xo0/
l0C2IwIDAQABo4GAMH4wDAYDVR0TAQH/BAIwADAdBgNVHQ4EFgQUmgz6YGczqtOp
E25Vf8Fljt4B7cAwHwYDVR0jBBgwFoAUUhFj8EchY2U3jzUExjlr4E4+iQwwHQYD
VR0lBBYwFAYIKwYBBQUHAwEGCCsGAQUFBwMCMA8GA1UdEQQIMAaHBH8AAAEwDQYJ
KoZIhvcNAQELBQADggEBACQ2TvI7b68XSoAPZBVU39KkJcCxbPUy7bALWvLjpe8G
zJHbHkZSCXLMFrtK5RUZyPJDWX6rWyqeI4Q9HpqgcxMl/7+EfACURmDa7+PnyGZu
7qFRrOBnbIF+kJMFOyjZ0UJciENG8EC2x5FaGDjMV6eRIjNxzhoHdTQSsqLwEOcW
dU8pBkqAmKrg2H1ZB2+VIBWEHDhCE1SwxTMYSPbUoDyO0I/0XEtM2vWBLiqnCfG1
/DQAYjqXY11WOhnzstLkkpCgpBL0EGPcqxyGFBkCqhFGTPv/wWKaMg6BBkwWAGuU
hOVhoi0kS4JjQSMxzW0E3511X3bugNTzeoKqLTGwlic=
-----END CERTIFICATE-----
