Certificate:
    Data:
        Version: 3 (0x2)
        Serial Number:
            15:d3:2f:94:0f:eb:23:72:59:96:93:a2:fa:38:f0:1b:fb:c7:97:81
        Signature Algorithm: md5WithRSAEncryption
        Issuer: CN=Test Dup-Hash Root CA
        Validity
            Not Before: Nov 15 00:23:52 2025 GMT
            Not After : Nov 13 00:23:52 2035 GMT
        Subject: CN=Test Dup-Hash Root CA
        Subject Public Key Info:
            Public Key Algorithm: rsaEncryption
                Public-Key: (2048 bit)
                Modulus:
                    00:a0:ee:59:41:fc:c8:16:4b:12:62:a9:39:1f:8b:
                    ce:ac:cb:6e:b2:15:a8:9d:0c:ad:a9:04:7b:8f:98:
                    e1:56:34:2d:cc:a6:ae:63:d3:08:44:06:6b:0d:20:
                    be:b1:ac:8c:d9:83:fa:ab:c4:1b:7b:68:d2:d7:b5:
                    96:bc:36:d1:62:26:c6:e1:7c:5f:bc:e4:46:30:78:
                    4a:f9:b0:6f:cc:6d:c7:6d:4d:cb:7d:f8:de:58:67:
                    69:d8:8d:65:b3:3d:b3:19:b7:ad:e1:a0:5f:a7:c2:
                    70:0d:09:27:8f:0a:fe:ea:7d:1d:56:b7:06:3b:f5:
                    88:07:07:fc:49:c5:c0:2e:df:55:30:25:c0:e0:36:
                    39:03:fd:f9:3a:18:e6:cd:bf:e9:69:7c:f5:c5:40:
                    09:a3:00:43:5d:29:e8:f1:51:8a:f2:8d:0e:61:f8:
                    59:1b:03:8e:58:eb:22:e7:5a:55:b3:11:01:13:a0:
                    f3:a7:0b:41:76:23:41:29:5b:d0:f5:2c:c5:c7:4b:
                    10:f1:ae:fe:4d:2c:d5:86:41:67:81:2a:76:d0:8d:
                    03:e2:67:fa:48:90:24:b5:6d:7f:25:f8:3f:94:7b:
                    64:be:c4:fa:a5:ff:e8:34:cc:aa:4c:48:95:48:6b:
                    6a:c0:4f:c0:92:09:00:9b:cd:30:a8:0b:a6:60:5b:
                    eb:fd
                Exponent: 65537 (0x10001)
        X509v3 extensions:
            X509v3 Basic Constraints: critical
                CA:TRUE
            X509v3 Subject Key Identifier: 
                52:11:63:F0:47:21:63:65:37:8F:35:04:C6:39:6B:E0:4E:3E:89:0C
            X509v3 Key Usage: critical
                Certificate Sign, CRL Sign
    Signature Algorithm: md5WithRSAEncryption
    Signature Value:
        85:d9:c3:d8:c7:ec:d9:ed:2e:77:97:cc:b3:89:5c:38:02:1c:
        70:85:11:90:7e:c6:88:59:1e:7c:36:74:3b:b2:23:36:a5:de:
        db:8b:2d:b4:6a:df:31:86:84:3b:f1:2e:c0:89:04:0d:8d:fa:
        53:3f:fd:b9:80:fb:56:43:b6:e3:3c:ba:51:b4:85:45:5a:5d:
        ac:d6:aa:71:13:db:43:af:f9:f0:ba:eb:1c:6d:43:ff:84:6c:
        08:d7:08:a7:da:bc:53:22:db:2a:ce:76:de:14:05:57:e8:fd:
        be:aa:7b:80:5c:e7:64:a9:4b:a5:bf:f9:ce:ff:5d:49:ab:aa:
        65:ed:04:07:12:41:f0:f1:14:81:c6:ba:27:60:04:c6:f7:54:
        70:42:f4:fe:5e:55:57:bc:75:00:99:a2:3e:31:5e:93:5d:54:
        41:65:7d:19:f3:00:45:df:91:8f:c7:5d:97:50:85:06:65:b7:
        eb:cb:d8:2a:87:bd:3c:38:da:aa:d8:fd:9b:18:f3:f2:49:fb:
        1f:de:b6:42:8b:b9:db:11:3d:38:4d:c8:b2:33:98:80:e6:24:
        78:c7:6e:78:c3:e0:12:cd:e4:09:ff:de:2e:57:0f:7c:d2:39:
        75:d3:f7:99:10:62:1f:a8:2f:62:f5:a2:ef:1d:f2:e9:ab:86:
        aa:f9:2e:ec
-----BEGIN CERTIFICATE-----
MIIDEDCCAfigAwIBAgIUFdMvlA/rI3JZlpOi+jjwG/vHl4EwDQYJKoZIhvcNAQEE
BQAwIDEeMBwGA1UEAwwVVGVzdCBEdXAtSGFzaCBSb290IENBMB4XDTI1MTExNTAw
MjM1MloXDTM1MTExMzAwMjM1MlowIDEeMBwGA1UEAwwVVGVzdCBEdXAtSGFzaCBS
b290IENBMIIBIjANBgkqhkiG9w0BAQEFAAOCAQ8AMIIBCgKCAQEAoO5ZQfzIFksS
Yqk5H4vOrMtushWonQytqQR7j5jhVjQtzKauY9MIRAZrDSC+sayM2YP6q8Qbe2jS
17WWvDbRYibG4XxfvORGMHhK+bBvzG3HbU3LffjeWGdp2I1lsz2zGbet4aBfp8Jw
DQknjwr+6n0dVrcGO/WIBwf8ScXALt9VMCXA4DY5A/35Ohjmzb/paXz1xUAJowBD
XSno8VGK8o0OYfhZGwOOWOsi51pVsxEBE6DzpwtBdiNBKVvQ9SzFx0sQ8a7+TSzV
hkFngSp20I0D4mf6SJAktW1/Jfg/lHtkvsT6pf/oNMyqTEiVSGtqwE/AkgkAm80w
qAumYFvr/QIDAQABo0IwQDAPBgNVHRMBAf8EBTADAQH/MB0GA1UdDgQWBBRSEWPw
RyFjZTePNQTGOWvgTj6JDDAOBgNVHQ8BAf8EBAMCAQYwDQYJKoZIhvcNAQEEBQAD
ggEBAIXZw9jH7NntLneXzLOJXDgCHHCFEZB+xohZHnw2dDuyIzal3tuLLbRq3zGG
hDvxLsCJBA2N+lM//bmA+1ZDtuM8ulG0hUVaXazWqnET20Ov+fC66xxtQ/+EbAjX
CKfavFMi2yrOdt4UBVfo/b6qe4Bc52SpS6W/+c7/XUmrqmXtBAcSQfDxFIHGuidg
BMb3VHBC9P5eVVe8dQCZoj4xXpNdVEFlfRnzAEXfkY/HXZdQhQZlt+vL2CqHvTw4
2qrY/ZsY8/JJ+x/etkKLudsRPThNyLIzmIDmJHjHbnjD4BLN5An/3i5XD3zSOXXT
95kQYh+oL2L1ou8d8umrhqr5Luw=
-----END CERTIFICATE-----
