Certificate:
    Data:
        Version: 3 (0x2)
        Serial Number:
            14:c8:c7:f1:f1:6b:91:0b:18:45:4b:c0:65:f2:fc:24
        Signature Algorithm: sha256WithRSAEncryption
        Issuer: C=US, ST=California, L=Mountain View, O=Test CA, CN=Test Root CA
        Validity
            Not Before: Dec 20 00:00:00 2017 GMT
            Not After : Dec 20 00:00:00 2020 GMT
        Subject: C=US, ST=California, L=Mountain View, O=Test CA, CN=127.0.0.1
        Subject Public Key Info:
            Public Key Algorithm: rsaEncryption
                Public-Key: (2048 bit)
                Modulus:
                    00:b1:89:de:55:76:71:f4:dc:57:91:e0:f6:f4:5d:
                    db:d9:34:5e:5f:41:e8:76:2a:d5:9b:3d:64:07:6c:
                    84:3c:51:34:b1:b0:6b:40:2f:49:27:ea:55:8f:c7:
                    00:b8:7b:7a:1f:40:14:ce:be:e0:38:09:55:a0:34:
                    a6:d1:ad:4b:37:e2:31:9a:8d:e3:03:fd:6b:2c:84:
                    08:94:36:fd:9a:e0:dd:00:c4:2a:15:a1:07:a1:64:
                    88:34:f3:d1:c8:4a:01:46:d5:f3:7e:ba:5c:4e:93:
                    69:a8:a6:df:1d:b2:02:b3:b1:03:12:87:77:d9:3b:
                    33:ff:e7:8c:73:2e:19:3f:9e:b2:5a:4b:62:82:cd:
                    ed:c5:0d:09:a4:e7:80:71:e6:de:2c:2d:b3:25:e3:
                    9e:d1:35:09:78:bd:bc:04:d6:84:50:21:ac:da:1c:
                    6b:db:cf:7c:90:10:cf:6d:71:49:ef:15:9c:b4:b7:
                    06:e6:8a:5b:12:37:3a:69:88:a5:dc:c7:25:05:4b:
                    91:eb:a5:bc:f5:f1:60:bd:f0:75:1d:ef:2e:f9:06:
                    ad:3e:6e:bb:d7:34:14:df:1d:b6:ba:8f:9e:2a:dd:
                    38:6b:0c:c2:e6:d9:37:2b:41:a9:9e:87:75:5c:8a:
                    60:24:38:ae:2f:55:0b:c5:35:fe:ae:cc:8e:c7:a0:
                    2b:ab
                Exponent: 65537 (0x10001)
        X509v3 extensions:
            X509v3 Basic Constraints: critical
                CA:FALSE
            X509v3 Subject Key Identifier: 
                19:25:DE:C2:13:21:AE:D2:4D:BF:54:AD:C3:6C:42:A1:7F:15:7E:6E
            X509v3 Authority Key Identifier: 
                9B:26:0B:8A:98:A9:BB:1D:B9:1F:1C:E3:1A:40:33:ED:8E:17:88:AB
            X509v3 Extended Key Usage: 
                TLS Web Server Authentication, TLS Web Client Authentication
            X509v3 Subject Alternative Name: 
                IP Address:127.0.0.1
    Signature Algorithm: sha256WithRSAEncryption
    Signature Value:
        aa:68:ae:10:6d:ed:ef:c8:66:39:9b:3c:da:4f:65:98:49:a0:
        5c:3b:2f:c8:90:6c:70:c0:88:4b:73:87:17:e2:52:86:10:b5:
        ef:74:d0:ae:51:d9:91:22:e3:36:b9:2e:36:e5:9c:f8:f2:31:
        95:5b:3b:92:86:16:33:3b:e4:d5:87:bb:78:b7:25:52:31:1a:
        f3:3a:bb:f0:72:01:3c:13:e5:bf:b2:98:72:55:4a:43:54:88:
        a8:75:09:d8:a9:f6:40:ce:c2:5b:2e:18:7d:63:3e:62:eb:71:
        2f:88:bd:b4:70:7a:16:e6:bb:de:2d:ff:78:b8:3e:b2:01:5c:
        aa:27:3f:f6:ea:91:5f:8a:88:d8:1d:be:db:08:62:db:24:48:
        1f:68:9b:05:f9:48:06:50:ec:72:12:0f:1a:80:ba:5b:2f:fa:
        e1:d6:2c:78:97:06:80:32:b8:d6:d8:76:e3:d6:61:7c:50:b3:
        ee:de:2c:7f:0c:3c:b0:4a:1c:9a:8f:1d:73:24:01:a6:87:93:
        fa:f3:9b:6e:7f:3a:03:d8:66:03:96:59:62:ab:eb:95:92:e5:
        c2:57:d1:fd:c5:14:6d:f7:f3:30:df:33:c3:ba:61:c0:ad:d3:
        f6:a2:08:12:13:10:5b:b9:55:1a:24:c2:b6:7b:9b:2b:9b:f8:
        be:ba:28:fa
-----BEGIN CERTIFICATE-----
MIIDzjCCAragAwIBAgIQFMjH8fFrkQsYRUvAZfL8JDANBgkqhkiG9w0BAQsFADBj
MQswCQYDVQQGEwJVUzETMBEGA1UECAwKQ2FsaWZvcm5pYTEWMBQGA1UEBwwNTW91
bnRhaW4gVmlldzEQMA4GA1UECgwHVGVzdCBDQTEVMBMGA1UEAwwMVGVzdCBSb290
IENBMB4XDTE3MTIyMDAwMDAwMFoXDTIwMTIyMDAwMDAwMFowYDELMAkGA1UEBhMC
VVMxEzARBgNVBAgMCkNhbGlmb3JuaWExFjAUBgNVBAcMDU1vdW50YWluIFZpZXcx
EDAOBgNVBAoMB1Rlc3QgQ0ExEjAQBgNVBAMMCTEyNy4wLjAuMTCCASIwDQYJKoZI
hvcNAQEBBQADggEPADCCAQoCggEBALGJ3lV2cfTcV5Hg9vRd29k0Xl9B6HYq1Zs9
ZAdshDxRNLGwa0AvSSfqVY/HALh7eh9AFM6+4DgJVaA0ptGtSzfiMZqN4wP9ayyE
CJQ2/Zrg3QDEKhWhB6FkiDTz0chKAUbV8366XE6Taaim3x2yArOxAxKHd9k7M//n
jHMuGT+eslpLYoLN7cUNCaTngHHm3iwtsyXjntE1CXi9vATWhFAhrNoca9vPfJAQ
z21xSe8VnLS3BuaKWxI3OmmIpdzHJQVLkeulvPXxYL3wdR3vLvkGrT5uu9c0FN8d
trqPnirdOGsMwubZNytBqZ6HdVyKYCQ4ri9VC8U1/q7MjsegK6sCAwEAAaOBgDB+
MAwGA1UdEwEB/wQCMAAwHQYDVR0OBBYEFBkl3sITIa7STb9UrcNsQqF/FX5uMB8G
A1UdIwQYMBaAFJsmC4qYqbsduR8c4xpAM+2OF4irMB0GA1UdJQQWMBQGCCsGAQUF
BwMBBggrBgEFBQcDAjAPBgNVHREECDAGhwR/AAABMA0GCSqGSIb3DQEBCwUAA4IB
AQCqaK4Qbe3vyGY5mzzaT2WYSaBcOy/IkGxwwIhLc4cX4lKGELXvdNCuUdmRIuM2
uS425Zz48jGVWzuShhYzO+TVh7t4tyVSMRrzOrvwcgE8E+W/sphyVUpDVIiodQnY
qfZAzsJbLhh9Yz5i63EviL20cHoW5rveLf94uD6yAVyqJz/26pFfiojYHb7bCGLb
JEgfaJsF+UgGUOxyEg8agLpbL/rh1ix4lwaAMrjW2Hbj1mF8ULPu3ix/DDywShya
jx1zJAGmh5P685tufzoD2GYDllliq+uVkuXCV9H9xRRt9/Mw3zPDumHArdP2oggS
ExBbuVUaJMK2e5srm/i+uij6
-----END CERTIFICATE-----
