Certificate:
    Data:
        Version: 3 (0x2)
        Serial Number:
            24:47:09:4c:5a:5e:3d:86:7f:31:46:fa:87:b8:17:a0:70:d4:c9:70
        Signature Algorithm: sha256WithRSAEncryption
        Issuer: C=US, ST=California, L=Mountain View, O=Test Org
        Validity
            Not Before: Nov 15 00:47:49 2025 GMT
            Not After : Nov 15 00:47:49 2027 GMT
        Subject: C=US, ST=California, L=Mountain View, O=Test Org
        Subject Public Key Info:
            Public Key Algorithm: rsaEncryption
                Public-Key: (2048 bit)
                Modulus:
                    00:ce:39:47:b5:cc:f1:c8:ab:00:8c:d4:1d:26:24:
                    c3:76:ca:cf:61:35:67:a5:2e:71:f8:60:9e:87:96:
                    09:1f:66:b3:d0:3d:ae:25:da:ac:a8:0b:30:fe:e9:
                    a5:ac:44:39:2f:0c:c9:1b:66:01:ee:41:e6:b0:a0:
                    47:fc:97:63:5a:91:fe:4a:c5:91:1e:be:3c:6a:fb:
                    3a:38:44:50:a8:50:76:9d:5c:cb:66:b6:77:82:f5:
                    1b:8f:a5:3f:5f:b5:99:56:8e:1f:49:22:70:88:a0:
                    42:69:ac:2b:9b:40:75:83:df:9e:80:3b:a1:b7:3e:
                    dc:ed:08:08:e6:06:a5:4e:bf:10:be:d6:8d:20:41:
                    09:60:e6:75:95:18:37:51:9a:8f:5e:bd:f9:d0:ef:
                    e5:05:2a:8f:3e:9c:5c:ab:0a:29:2f:e3:d6:f1:2f:
                    bd:8a:d1:10:7a:b3:f4:10:b5:4c:2f:fa:cb:3c:7d:
                    c1:6b:9b:21:a9:ef:75:d6:7f:7c:53:62:9e:f1:94:
                    b2:83:08:f8:6c:87:f1:e2:7d:16:c8:9f:34:98:8d:
                    26:67:a2:d2:22:91:2f:66:3b:e4:f0:4e:89:94:ee:
                    68:d2:90:75:54:55:0e:f2:74:89:9f:a6:d7:60:f7:
                    a0:05:60:cd:5d:e2:07:69:08:56:b2:e8:1a:f5:ea:
                    ef:cf
                Exponent: 65537 (0x10001)
        X509v3 extensions:
            X509v3 Subject Key Identifier: 
                38:D7:87:AA:57:89:49:50:59:24:72:6F:60:78:B6:BE:8F:C7:99:33
    Signature Algorithm: sha256WithRSAEncryption
    Signature Value:
        19:88:ae:2d:6a:1f:6a:51:39:03:6f:38:37:11:d0:83:2a:45:
        eb:14:16:7c:cc:c1:ef:51:f7:c8:e6:79:a0:86:2a:07:6a:34:
        4c:29:ab:18:aa:eb:e4:59:de:d7:8a:6f:2b:06:24:9b:f2:8e:
        8d:73:98:1c:33:b0:38:b1:a8:fc:2f:ab:fe:7e:d5:1f:68:7f:
        b9:e2:b5:67:4b:5e:b4:47:91:1b:e5:59:88:16:0f:77:0b:98:
        50:30:24:23:1f:e2:e5:8a:b4:5b:d9:f5:03:44:ae:0a:79:ff:
        25:35:8b:ce:a5:ce:ff:f1:32:0e:e7:a8:e5:52:69:97:50:55:
        22:b8:40:dc:1c:1f:56:b8:a8:01:1c:71:d8:ee:56:d9:df:65:
        eb:3d:08:5e:38:71:dd:b6:e8:91:77:75:49:7c:fb:96:32:ac:
        e0:54:ee:58:3c:54:a4:51:fc:d1:fb:f5:e8:17:6c:6c:1b:26:
        d7:b7:aa:db:f0:22:dc:57:32:23:c0:1e:f1:f9:e1:89:c5:f5:
        5e:54:ee:d9:9a:06:ae:f2:e9:2e:c7:1a:2c:5d:79:9a:a9:a2:
        23:b4:7d:48:ab:c7:56:c6:ee:27:4a:1d:eb:89:44:dd:f3:09:
        bd:78:1d:4e:bf:a0:44:d2:68:a5:58:5f:46:3a:0f:d0:8a:c0:
        19:d1:e1:03
-----BEGIN CERTIFICATE-----
MIIDSTCCAjGgAwIBAgIUJEcJTFpePYZ/MUb6h7gXoHDUyXAwDQYJKoZIhvcNAQEL
BQAwTTELMAkGA1UEBhMCVVMxEzARBgNVBAgMCkNhbGlmb3JuaWExFjAUBgNVBAcM
DU1vdW50YWluIFZpZXcxETAPBgNVBAoMCFRlc3QgT3JnMB4XDTI1MTExNTAwNDc0
OVoXDTI3MTExNTAwNDc0OVowTTELMAkGA1UEBhMCVVMxEzARBgNVBAgMCkNhbGlm
b3JuaWExFjAUBgNVBAcMDU1vdW50YWluIFZpZXcxETAPBgNVBAoMCFRlc3QgT3Jn
MIIBIjANBgkqhkiG9w0BAQEFAAOCAQ8AMIIBCgKCAQEAzjlHtczxyKsAjNQdJiTD
dsrPYTVnpS5x+GCeh5YJH2az0D2uJdqsqAsw/umlrEQ5LwzJG2YB7kHmsKBH/Jdj
WpH+SsWRHr48avs6OERQqFB2nVzLZrZ3gvUbj6U/X7WZVo4fSSJwiKBCaawrm0B1
g9+egDuhtz7c7QgI5galTr8QvtaNIEEJYOZ1lRg3UZqPXr350O/lBSqPPpxcqwop
L+PW8S+9itEQerP0ELVML/rLPH3Ba5shqe911n98U2Ke8ZSygwj4bIfx4n0WyJ80
mI0mZ6LSIpEvZjvk8E6JlO5o0pB1VFUO8nSJn6bXYPegBWDNXeIHaQhWsuga9erv
zwIDAQABoyEwHzAdBgNVHQ4EFgQUONeHqleJSVBZJHJvYHi2vo/HmTMwDQYJKoZI
hvcNAQELBQADggEBABmIri1qH2pROQNvODcR0IMqResUFnzMwe9R98jmeaCGKgdq
NEwpqxiq6+RZ3teKbysGJJvyjo1zmBwzsDixqPwvq/5+1R9of7nitWdLXrRHkRvl
WYgWD3cLmFAwJCMf4uWKtFvZ9QNErgp5/yU1i86lzv/xMg7nqOVSaZdQVSK4QNwc
H1a4qAEccdjuVtnfZes9CF44cd226JF3dUl8+5YyrOBU7lg8VKRR/NH79egXbGwb
Jte3qtvwItxXMiPAHvH54YnF9V5U7tmaBq7y6S7HGixdeZqpoiO0fUirx1bG7idK
HeuJRN3zCb14HU6/oETSaKVYX0Y6D9CKwBnR4QM=
-----END CERTIFICATE-----
