Certificate:
    Data:
        Version: 3 (0x2)
        Serial Number:
            37:9f:43:7c:05:69:8e:cc:d8:d0:f7:5b:3e:60:3a:33:b9:c0:68:4f
        Signature Algorithm: sha256WithRSAEncryption
        Issuer: C=US, ST=California, O=Test Org
        Validity
            Not Before: Nov 15 00:47:49 2025 GMT
            Not After : Nov 15 00:47:49 2027 GMT
        Subject: C=US, ST=California, O=Test Org
        Subject Public Key Info:
            Public Key Algorithm: rsaEncryption
                Public-Key: (2048 bit)
                Modulus:
                    00:a7:e5:b8:42:5a:ef:12:7f:c7:df:c4:ba:3b:1c:
                    82:1d:37:2a:5e:6c:1b:5d:b0:40:d9:32:9c:d8:c9:
                    f8:7e:05:8c:1b:75:19:81:f5:ea:86:d8:96:08:0c:
                    fa:cc:3a:19:e0:f7:4e:d1:fa:1a:a1:a9:8a:a4:2b:
                    4c:e1:54:97:4a:ba:73:aa:c5:4c:a5:11:23:3b:d1:
                    2f:e0:01:b5:27:17:f9:22:c5:c8:59:b8:05:3c:28:
                    ff:c8:dd:e1:e1:5d:d4:d9:e7:ff:36:d3:40:7c:19:
                    e5:a4:72:8a:92:71:d7:9b:38:e6:68:7e:5f:8c:06:
                    8f:37:49:bf:91:49:af:c4:6c:99:f1:e6:f4:d0:3a:
                    2a:7d:44:86:26:d9:46:2c:80:68:eb:ad:09:8e:2c:
                    4b:39:92:56:93:0d:35:51:60:51:8d:80:6a:b8:cc:
                    fa:69:47:c8:8e:56:2e:df:a2:b8:6a:fe:7e:35:6c:
                    39:ad:ce:06:22:99:9e:c7:5d:4b:19:ee:d3:31:e9:
                    22:ef:e8:be:c2:fa:b3:5f:4a:95:21:f6:68:e9:53:
                    c1:1f:59:1e:77:ec:aa:dc:81:69:70:fb:71:a8:4a:
                    bd:0e:b6:ce:72:b4:4e:a5:5e:00:a5:96:73:72:da:
                    68:38:a1:d7:65:05:b9:6d:f7:cc:d6:b5:18:85:a7:
                    32:c5
                Exponent: 65537 (0x10001)
        X509v3 extensions:
            X509v3 Subject Key Identifier: 
                DB:15:7A:2C:8B:FF:F0:EB:9A:F7:8A:27:97:3C:9E:11:05:6A:DD:4F
    Signature Algorithm: sha256WithRSAEncryption
    Signature Value:
        86:7d:b4:22:8e:86:45:e0:04:b7:45:24:7f:a4:9b:07:8a:d5:
        89:a6:16:f0:f4:de:51:8b:2e:b8:3f:46:85:a0:2a:0d:a8:e3:
        19:94:2b:d5:f3:82:50:c6:95:92:87:5c:fc:7e:14:9a:d4:58:
        a3:13:96:20:53:1f:d2:18:75:99:0d:71:d7:ef:84:b0:a9:40:
        e9:0f:4a:4f:62:d2:07:d8:19:46:57:cc:80:5f:f5:a7:0a:52:
        71:e7:d8:2f:61:23:2a:c9:14:b7:98:74:79:db:89:e6:91:49:
        0b:c8:44:29:8f:7c:cb:eb:a5:7a:5b:2f:27:8e:21:f7:8e:3d:
        58:12:76:47:35:1d:c5:9a:c2:4b:5f:3f:25:02:f9:bc:84:d1:
        4f:0a:6b:93:67:9e:3c:69:85:e0:df:3d:31:19:62:29:40:a7:
        cf:2d:ca:71:6f:8e:df:78:bb:61:f1:31:6b:56:44:5b:cd:15:
        f5:29:9c:d7:23:15:6a:44:0c:c9:b6:ac:ae:71:be:53:bb:43:
        d1:c7:60:10:89:1d:73:80:ae:51:c7:01:3e:83:a4:fc:42:3b:
        d9:27:3c:05:cb:d1:2c:ce:36:21:4d:e1:33:54:14:ff:e6:35:
        cd:63:84:7d:ff:02:50:52:f4:3c:71:62:1c:3a:03:e1:38:76:
        c8:4e:5c:b3
-----BEGIN CERTIFICATE-----
MIIDGTCCAgGgAwIBAgIUN59DfAVpjszY0PdbPmA6M7nAaE8wDQYJKoZIhvcNAQEL
BQAwNTELMAkGA1UEBhMCVVMxEzARBgNVBAgMCkNhbGlmb3JuaWExETAPBgNVBAoM
CFRlc3QgT3JnMB4XDTI1MTExNTAwNDc0OVoXDTI3MTExNTAwNDc0OVowNTELMAkG
A1UEBhMCVVMxEzARBgNVBAgMCkNhbGlmb3JuaWExETAPBgNVBAoMCFRlc3QgT3Jn
MIIBIjANBgkqhkiG9w0BAQEFAAOCAQ8AMIIBCgKCAQEAp+W4QlrvEn/H38S6OxyC
HTcqXmwbXbBA2TKc2Mn4fgWMG3UZgfXqhtiWCAz6zDoZ4PdO0foaoamKpCtM4VSX
SrpzqsVMpREjO9Ev4AG1Jxf5IsXIWbgFPCj/yN3h4V3U2ef/NtNAfBnlpHKKknHX
mzjmaH5fjAaPN0m/kUmvxGyZ8eb00DoqfUSGJtlGLIBo660JjixLOZJWkw01UWBR
jYBquMz6aUfIjlYu36K4av5+NWw5rc4GIpmex11LGe7TMeki7+i+wvqzX0qVIfZo
6VPBH1ked+yq3IFpcPtxqEq9DrbOcrROpV4ApZZzctpoOKHXZQW5bffM1rUYhacy
xQIDAQABoyEwHzAdBgNVHQ4EFgQU2xV6LIv/8Oua94onlzyeEQVq3U8wDQYJKoZI
hvcNAQELBQADggEBAIZ9tCKOhkXgBLdFJH+kmweK1YmmFvD03lGLLrg/RoWgKg2o
4xmUK9XzglDGlZKHXPx+FJrUWKMTliBTH9IYdZkNcdfvhLCpQOkPSk9i0gfYGUZX
zIBf9acKUnHn2C9hIyrJFLeYdHnbieaRSQvIRCmPfMvrpXpbLyeOIfeOPVgSdkc1
HcWawktfPyUC+byE0U8Ka5NnnjxpheDfPTEZYilAp88tynFvjt94u2HxMWtWRFvN
FfUpnNcjFWpEDMm2rK5xvlO7Q9HHYBCJHXOArlHHAT6DpPxCO9knPAXL0SzONiFN
4TNUFP/mNc1jhH3/AlBS9DxxYhw6A+E4dshOXLM=
-----END CERTIFICATE-----
