-----BEGIN PRIVATE KEY-----
MIIEvQIBADANBgkqhkiG9w0BAQEFAASCBKcwggSjAgEAAoIBAQDDRq7weUiGT7XM
lZAosAKK0m8PeYfDwrrz6wqTSmXpJS8BzINzyIBa6zoIETKvhcG84QeDdAoCAft9
nV6uPLxzzmuRhWwiAarYIuSg7qiiNgD66IjA05sWPMHBuWSD7Eb2UyxLCME9kxH+
LFcxDGBOrTf8NSKpr7hMaZkhpY8MyKqWKbaF1oXUH7CqQ+95HDgc2a05d9+xV2cy
EVTTG8VAvf8j0nVSxCcSrOfqH9+v488diuGdJqxt7yH3jvX9BfqzKlUEv7J2GIiB
F3zztOZUj8RLzbLy18eKMeCfjxjzxnxYmfT6chQadzaAUwxHlPSKskKIuFj8T/Fl
G4EBfabrAgMBAAECggEAOq5M97qajrH5Ycc4EOIDgZAHC9FreOpVn+LrxKNAyLUB
0TqR7gM8fxXc1HvGjXRWadn9lgUS1NOfrXnS7+0UfIB1Vr+PZRC3NEgYCDxvtH8i
AERMhBWSrzYGy55YlEQ2duM7ljjFSSme6JCOixC7CCmJf2LATdmeOmgpOjE0MZS9
Cz6W1AEw949YIsNCyBuG54Pf50RR/uwk8a9bctOlL7fmMoHETslgmwVYHGoY2TQH
WsLHcjEpVPmyigbkGQs6xteCeKLo+SN+3cdlzZVkhrRm85zXoY9Fk08Ll21cRHOF
waGoGg9GYQDrE1aWXKZqMoAL26TvsFa4KRUcm7/ZEQKBgQDsBRjBzhprehSVaFeM
8JXL0DKAk8bLm+kFo2CoLmNphUNk43q7MnfM1Dp3HM4UEq2AIA8oKtrI1aqc7ChT
JDMKA57nNQ1SSlFhnR0maFRD32h8BlFW6qNpl1S0vh/clDT3keTXVXpiNtV4z0uL
r5kKE/j4ya91nJRoFuZZaQz0hQKBgQDTzpuTN+dMcI2r1GcTA6wonRshypRi8d1K
DsBPcGX/SuT8iyorGvJh1IG9FSYM+0liN99fA3xu3PC8NyL2WkaN+KWKJaCf0BqN
fLYZb9s2b4ae3qrTzGyIjS26DmX1ZuBkp2nvCLqlfBDaukn03ZiRQOe9zeUmYS7h
x0nnp+CArwKBgAzQQgXTkK+hExkBby9hqGBGT1eXrkVDk6UQt6Cp1A/Ygk4p43Hi
TYq7QulQkQeZ8/1uwCPoH7SjlP2r/Ix2/KZgh/H5eV2sVzq7cuew5lJBAMUq+qOD
XZfP9XNSlxw8l5uROiFOrLREUdabOni88cwQRYYMPRBfjdcQ1zSndWKZAoGBAIBy
i2Z8QIjauQ+7f8bIM19t50ZW1CYtB0YiK/4A69omUTfWLXx2mwc5GHTSnoDA43/s
4kl8k7mnw1ZhGZLMrHzsjXd52i8QxQmI1+YVL5uThtBRuMc48ZjeBR0QHkT0XqCr
5lJPuOEinBYJY1BcEmoEMoWol47u4L+LXAZgiIWBAoGAEm+mJyT22ajB4JK+Zizm
qyY2YF9+XU4aRN+zuAYX6yVulK6wLF4g3YWEEP2YdFICMZa7AbuQK9t6RXMXH9/C
n64w/TBNvihKkAb9NqFFjqAE1DqTPeeusoaJ7kHfdF12F7bUNFbvixk+x8bt9CQC
9p8zmBjX4cGflRSpat09lr4=
-----END PRIVATE KEY-----
Certificate:
    Data:
        Version: 3 (0x2)
        Serial Number:
            14:c8:c7:f1:f1:6b:91:0b:18:45:4b:c0:65:f2:fc:08
        Signature Algorithm: sha256WithRSAEncryption
        Issuer: C=US, ST=California, L=Mountain View, O=Test CA, CN=Test Root CA
        Validity
            Not Before: Jan  1 00:00:00 2006 GMT
            Not After : Jan  1 00:00:00 2007 GMT
        Subject: C=US, ST=California, L=Mountain View, O=Test CA, CN=127.0.0.1
        Subject Public Key Info:
            Public Key Algorithm: rsaEncryption
                Public-Key: (2048 bit)
                Modulus:
                    00:c3:46:ae:f0:79:48:86:4f:b5:cc:95:90:28:b0:
                    02:8a:d2:6f:0f:79:87:c3:c2:ba:f3:eb:0a:93:4a:
                    65:e9:25:2f:01:cc:83:73:c8:80:5a:eb:3a:08:11:
                    32:af:85:c1:bc:e1:07:83:74:0a:02:01:fb:7d:9d:
                    5e:ae:3c:bc:73:ce:6b:91:85:6c:22:01:aa:d8:22:
                    e4:a0:ee:a8:a2:36:00:fa:e8:88:c0:d3:9b:16:3c:
                    c1:c1:b9:64:83:ec:46:f6:53:2c:4b:08:c1:3d:93:
                    11:fe:2c:57:31:0c:60:4e:ad:37:fc:35:22:a9:af:
                    b8:4c:69:99:21:a5:8f:0c:c8:aa:96:29:b6:85:d6:
                    85:d4:1f:b0:aa:43:ef:79:1c:38:1c:d9:ad:39:77:
                    df:b1:57:67:32:11:54:d3:1b:c5:40:bd:ff:23:d2:
                    75:52:c4:27:12:ac:e7:ea:1f:df:af:e3:cf:1d:8a:
                    e1:9d:26:ac:6d:ef:21:f7:8e:f5:fd:05:fa:b3:2a:
                    55:04:bf:b2:76:18:88:81:17:7c:f3:b4:e6:54:8f:
                    c4:4b:cd:b2:f2:d7:c7:8a:31:e0:9f:8f:18:f3:c6:
                    7c:58:99:f4:fa:72:14:1a:77:36:80:53:0c:47:94:
                    f4:8a:b2:42:88:b8:58:fc:4f:f1:65:1b:81:01:7d:
                    a6:eb
                Exponent: 65537 (0x10001)
        X509v3 extensions:
            X509v3 Basic Constraints: critical
                CA:FALSE
            X509v3 Subject Key Identifier: 
                F3:9E:DE:55:DE:AD:DA:14:A3:B8:AA:E5:3A:D3:84:E6:88:B1:7E:C6
            X509v3 Authority Key Identifier: 
                9B:26:0B:8A:98:A9:BB:1D:B9:1F:1C:E3:1A:40:33:ED:8E:17:88:AB
            X509v3 Extended Key Usage: 
                TLS Web Server Authentication, TLS Web Client Authentication
            X509v3 Subject Alternative Name: 
                IP Address:127.0.0.1
    Signature Algorithm: sha256WithRSAEncryption
    Signature Value:
        02:af:b4:40:d5:05:7e:f6:4f:49:de:cf:79:53:9a:9a:2a:77:
        14:4b:59:dd:fe:0e:56:57:f3:9b:0c:e5:75:5d:50:ea:0a:d8:
        ab:09:a9:be:c4:d6:34:43:cc:0f:35:8a:86:ff:de:f6:3f:fa:
        eb:1d:53:d4:13:02:07:ca:8d:a6:5a:5f:4a:40:6e:84:8d:23:
        73:3a:05:00:0d:dd:78:4e:b1:2f:2c:c5:62:03:47:82:3a:9c:
        61:b9:9f:9f:a0:4d:e4:b1:1f:80:da:9b:b7:40:0a:a8:0f:43:
        20:3d:ca:3e:00:d0:67:ae:f9:4c:20:10:7b:81:08:fe:60:b3:
        2c:db:32:53:26:0c:94:05:2c:8f:0d:16:8c:47:a1:5f:ec:27:
        13:a2:e5:cc:24:8d:14:9e:2b:41:18:0c:ff:a0:ce:da:93:bb:
        35:bd:25:a1:ef:8a:53:b8:2c:7d:d4:18:b5:2e:55:39:1c:5b:
        fc:59:32:f5:e9:28:0f:0d:4f:d8:ed:07:71:3a:49:d6:96:ac:
        5f:b4:67:24:24:63:af:1f:5a:e4:b6:27:83:c5:de:aa:38:68:
        4e:67:00:f3:3f:25:32:83:97:2f:b7:0b:68:bc:7e:3b:36:f9:
        d5:66:8e:f8:9b:d2:95:d9:cd:8c:bf:51:f2:97:af:0e:14:c8:
        27:eb:bd:01
-----BEGIN CERTIFICATE-----
MIIDzjCCAragAwIBAgIQFMjH8fFrkQsYRUvAZfL8CDANBgkqhkiG9w0BAQsFADBj
MQswCQYDVQQGEwJVUzETMBEGA1UECAwKQ2FsaWZvcm5pYTEWMBQGA1UEBwwNTW91
bnRhaW4gVmlldzEQMA4GA1UECgwHVGVzdCBDQTEVMBMGA1UEAwwMVGVzdCBSb290
IENBMB4XDTA2MDEwMTAwMDAwMFoXDTA3MDEwMTAwMDAwMFowYDELMAkGA1UEBhMC
VVMxEzARBgNVBAgMCkNhbGlmb3JuaWExFjAUBgNVBAcMDU1vdW50YWluIFZpZXcx
EDAOBgNVBAoMB1Rlc3QgQ0ExEjAQBgNVBAMMCTEyNy4wLjAuMTCCASIwDQYJKoZI
hvcNAQEBBQADggEPADCCAQoCggEBAMNGrvB5SIZPtcyVkCiwAorSbw95h8PCuvPr
CpNKZeklLwHMg3PIgFrrOggRMq+FwbzhB4N0CgIB+32dXq48vHPOa5GFbCIBqtgi
5KDuqKI2AProiMDTmxY8wcG5ZIPsRvZTLEsIwT2TEf4sVzEMYE6tN/w1IqmvuExp
mSGljwzIqpYptoXWhdQfsKpD73kcOBzZrTl337FXZzIRVNMbxUC9/yPSdVLEJxKs
5+of36/jzx2K4Z0mrG3vIfeO9f0F+rMqVQS/snYYiIEXfPO05lSPxEvNsvLXx4ox
4J+PGPPGfFiZ9PpyFBp3NoBTDEeU9IqyQoi4WPxP8WUbgQF9pusCAwEAAaOBgDB+
MAwGA1UdEwEB/wQCMAAwHQYDVR0OBBYEFPOe3lXerdoUo7iq5TrThOaIsX7GMB8G
A1UdIwQYMBaAFJsmC4qYqbsduR8c4xpAM+2OF4irMB0GA1UdJQQWMBQGCCsGAQUF
BwMBBggrBgEFBQcDAjAPBgNVHREECDAGhwR/AAABMA0GCSqGSIb3DQEBCwUAA4IB
AQACr7RA1QV+9k9J3s95U5qaKncUS1nd/g5WV/ObDOV1XVDqCtirCam+xNY0Q8wP
NYqG/972P/rrHVPUEwIHyo2mWl9KQG6EjSNzOgUADd14TrEvLMViA0eCOpxhuZ+f
oE3ksR+A2pu3QAqoD0MgPco+ANBnrvlMIBB7gQj+YLMs2zJTJgyUBSyPDRaMR6Ff
7CcTouXMJI0UnitBGAz/oM7ak7s1vSWh74pTuCx91Bi1LlU5HFv8WTL16SgPDU/Y
7QdxOknWlqxftGckJGOvH1rktieDxd6qOGhOZwDzPyUyg5cvtwtovH47NvnVZo74
m9KV2c2Mv1Hyl68OFMgn670B
-----END CERTIFICATE-----
