Certificate:
    Data:
        Version: 3 (0x2)
        Serial Number: 1 (0x1)
        Signature Algorithm: sha1WithRSAEncryption
        Issuer: C=US, ST=California, L=Mountain View, O=Test CA, CN=Test Root CA
        Validity
            Not Before: Jan  1 00:00:00 2006 GMT
            Not After : Jan  1 00:00:00 2007 GMT
        Subject: C=US, ST=California, L=Mountain View, O=Test CA, CN=127.0.0.1
        Subject Public Key Info:
            Public Key Algorithm: rsaEncryption
            RSA Public Key: (1024 bit)
                Modulus (1024 bit):
                    00:d3:b1:98:19:4f:40:2b:f0:73:a0:e1:9d:af:32:
                    36:cb:62:aa:d9:9e:81:a1:60:1a:a8:2f:1a:6f:f3:
                    0e:5e:31:50:a6:a3:f3:15:b1:71:8e:e7:e6:9b:ed:
                    7f:b5:ff:2f:3e:b3:50:83:5b:70:a6:70:80:32:d5:
                    26:6c:67:bb:40:41:0d:b7:63:f0:60:b8:63:d0:ad:
                    10:be:4b:ad:b2:57:9f:c1:fc:42:2e:56:46:71:b8:
                    78:00:28:9e:ec:80:2d:8d:a5:4e:c6:3c:e0:53:9a:
                    a3:c8:4b:3c:58:0f:89:4c:64:93:c0:db:49:a4:85:
                    1e:50:31:b6:4e:66:c7:a1:fb
                Exponent: 65537 (0x10001)
        X509v3 extensions:
            X509v3 Basic Constraints: critical
                CA:FALSE
            X509v3 Subject Key Identifier: 
                32:7B:D6:18:4F:26:9C:71:90:B5:37:FF:E4:33:5E:C8:C5:02:34:90
            X509v3 Authority Key Identifier: 
                keyid:CB:0C:83:29:5E:38:A2:D6:9F:F7:76:FB:B3:B6:48:84:4E:F8:4D:F3

            X509v3 Extended Key Usage: 
                TLS Web Server Authentication, TLS Web Client Authentication
            X509v3 Subject Alternative Name: 
                IP Address:127.0.0.1
    Signature Algorithm: sha1WithRSAEncryption
        66:6b:d6:b8:e5:77:c8:e5:af:6d:5f:f9:97:cd:ae:72:f0:68:
        23:28:b2:58:d2:6d:b0:37:5f:ec:36:d5:77:af:a2:80:02:27:
        02:43:84:e7:de:54:7a:40:43:06:fd:93:78:59:16:d4:6f:e5:
        a0:a5:6d:98:26:1b:6d:bf:67:92:67:e6:d1:d2:e7:e0:b2:5d:
        ee:83:00:ab:1a:15:bd:25:a7:be:36:26:06:34:3b:1c:5d:be:
        21:31:45:51:4c:0e:83:c2:04:e6:fd:2e:a9:94:f8:8a:4e:ff:
        af:89:ac:47:4c:85:79:19:f0:68:32:4c:aa:c0:6a:6c:9f:dc:
        4d:50
-----BEGIN CERTIFICATE-----
MIICujCCAiOgAwIBAgIBATANBgkqhkiG9w0BAQUFADBjMQswCQYDVQQGEwJVUzET
MBEGA1UECAwKQ2FsaWZvcm5pYTEWMBQGA1UEBwwNTW91bnRhaW4gVmlldzEQMA4G
A1UECgwHVGVzdCBDQTEVMBMGA1UEAwwMVGVzdCBSb290IENBMB4XDTA2MDEwMTAw
MDAwMFoXDTA3MDEwMTAwMDAwMFowYDELMAkGA1UEBhMCVVMxEzARBgNVBAgMCkNh
bGlmb3JuaWExFjAUBgNVBAcMDU1vdW50YWluIFZpZXcxEDAOBgNVBAoMB1Rlc3Qg
Q0ExEjAQBgNVBAMMCTEyNy4wLjAuMTCBnzANBgkqhkiG9w0BAQEFAAOBjQAwgYkC
gYEA07GYGU9AK/BzoOGdrzI2y2Kq2Z6BoWAaqC8ab/MOXjFQpqPzFbFxjufmm+1/
tf8vPrNQg1twpnCAMtUmbGe7QEENt2PwYLhj0K0QvkutslefwfxCLlZGcbh4ACie
7IAtjaVOxjzgU5qjyEs8WA+JTGSTwNtJpIUeUDG2TmbHofsCAwEAAaOBgDB+MAwG
A1UdEwEB/wQCMAAwHQYDVR0OBBYEFDJ71hhPJpxxkLU3/+QzXsjFAjSQMB8GA1Ud
IwQYMBaAFMsMgyleOKLWn/d2+7O2SIRO+E3zMB0GA1UdJQQWMBQGCCsGAQUFBwMB
BggrBgEFBQcDAjAPBgNVHREECDAGhwR/AAABMA0GCSqGSIb3DQEBBQUAA4GBAGZr
1rjld8jlr21f+ZfNrnLwaCMosljSbbA3X+w21XevooACJwJDhOfeVHpAQwb9k3hZ
FtRv5aClbZgmG22/Z5Jn5tHS5+CyXe6DAKsaFb0lp742JgY0OxxdviExRVFMDoPC
BOb9LqmU+IpO/6+JrEdMhXkZ8GgyTKrAamyf3E1Q
-----END CERTIFICATE-----
-----BEGIN RSA PRIVATE KEY-----
MIICWwIBAAKBgQDTsZgZT0Ar8HOg4Z2vMjbLYqrZnoGhYBqoLxpv8w5eMVCmo/MV
sXGO5+ab7X+1/y8+s1CDW3CmcIAy1SZsZ7tAQQ23Y/BguGPQrRC+S62yV5/B/EIu
VkZxuHgAKJ7sgC2NpU7GPOBTmqPISzxYD4lMZJPA20mkhR5QMbZOZseh+wIDAQAB
AoGAQlI9SJCfliR61UhZ0m105TtAM3WJPzmQoGhBbBlFwxTII6zxlzZEUXUttmQt
wqLz9jzPWJfpLvvH7iUBKK1G6ESXTzquNUYq6Yhn48EeLUygjple/T2EYwHxrVKg
lxt7TpFrkH/lJyRSRTSJjCnBBMfFwM8NA7rJkONsUocyKqECQQDsR6DAAmiw5PDe
PRiPww+Dup9Tps1DpcVcbzXw66bGRnM8WlTu++IQPzn09mGCBjFVEX0TjdGl9OLx
GFvfGPjNAkEA5Vyoi4YIiF22Ul/9Mwo5wmqOaTK2WZO/4XynpstW7n0ySk5XIKL4
x17NMTuhbXqLtvO4LLRboIE1O3cFlm+l5wJAKQvUcCa6+yf6dBEXCDpxooe0D/sl
I4BTxdgH/d9iLIWmlTB4GsAlKH9jWRvIGqdqwIV2PgRgDD17gzihFSOobQJAHR/w
/xacCsTrm/Y4brzDrN5fCxi3cxSB7x4nI9T6Svp24lykT66iLJ7rK29JBl/jUe4M
2xBj+jOuEMkCWqH+zQJAfY8tFgk+lTz4uXklpyeU1ZR9VZup4g3eJf21bp5nBRfk
yROePkvzYNRyOIceRKFMXMUWQ2+CPauBCiwZcOpISQ==
-----END RSA PRIVATE KEY-----
