-----BEGIN PRIVATE KEY-----
MIIEvQIBADANBgkqhkiG9w0BAQEFAASCBKcwggSjAgEAAoIBAQCd6b3kPUov+8L5
5iIqQhVGHIyPR0zpxVeVH2ZwkyLwlMO7tVvvpG/Ix4mVdboMNr9Oa6k1RwhDnilq
4sP7A7cftuFRa+17Gcf5zjvcZelmx4OUxNFO7u1kS4HxGupaZBgbak6T0BNskGDK
0k63JBb4sghYnY2nM0UVNIGtLS2cYO/5K5j+edONLEjbEpH0Lvq/9SbBggWA3Uyo
cL+nvBA0dznbRwQP7USyZUYiIIhZKA/HDKK0kaWiqsoFn4qbbqPL1KToJHWdIIEi
W193PsnxHq7rijOMJ1sevm0hG0JyleOeEwN1p1jUvmgS/mOOSxF6NOeja91zrj4Z
muyRi3OvAgMBAAECggEBAJwu2gyK/fw1YqNtlS78izP7+p2fZJf2AejQ1K3VKQKP
8IOQHW0I0zLe/9oeRTPdVhtG6mVyat8N6GL6A+IZy54HcBTqzUgquJn++z/CYDWy
cRbMD0SllY/UCqIf/9gFFb7PxwX1D7EZn1Ia7ZW/kSTKWOzkb30GfXY6p2NTwr/d
psacQ5v6+o8z3RD2N44gPvrGA2d1P83YT0oIYwKAHtpu6c46CBQmf54lhjs1LdxE
UgF8w+Y8T8DZQ5WekchIWBcGZLiqBkm49+uBoGtlfrcszZkC3pnX++HoZAYE9ms4
OCdWhEBHUyhd/os7GjaX+CGUM4nNx0LmoqeJBhBt0qkCgYEAzcsWqVYruimpnES+
lzFIiFZXI6rYd7hkJ+semFst4UFQM51TE0gXkrzZdIu/rgmRlb05to739V1i2z0B
TxGka+WzL6j4ZtJjy2WBl35GceoeL5Iwbjs8OiJFr8TAkq9v3TT2iymuUDGSHCCz
1T9GfS4/zoLNGiqKOxp7O6ZwaC0CgYEAxHBFRtQ1eeKYL5FZwWv2JklivutDWURK
0dzbzsvKaUf40ZdZe+A6cFomckm7xubHwMckY+8Y011pgF581JWWIaRs8u8jJuWA
ajjfmFSC0L5uuk6qYHa9eWQu8LvUGmKX9SMs7Mt2h7BS+l+ZDbgr6LngoK1CWGEK
DLo0/fp7OMsCgYAi++RVUx3J3u1DcHhJ8YnYC31yxcdYytLT6mdgFRf+lADTVWpa
+8VuH4aEBoHGT0AdiXZ3L2S9pGt6w6smSuR9pyXH81yO9jMaz52xKDlHgjoxchOj
mZRKeasJD1SBWyuUGj3TOHm2jka9W13W4ZPVEfis3ZWKXjLzizPp1wiC3QKBgEMX
ESIKsiTptg5w9xWveMdEwxvvn/Xp9B/O7aeoRH5GnX1/0okTYQIkWAMqmZ5qDYkS
uqQC8himS7UTEFFOsZLV5HvoHrpXIc+lkwAkxPTkRU8ONPRzOW0vQTTpAZztVXbc
x6gsKVRYbU6jvdNItn5qlYRrCEDFC7ijFBw2I0WXAoGARVYDlmIrSvnwqZ07YzPa
QeLueBBfnHqN+7XAGTctn0MOhE96OgURw0lWVnyoGtTmUAHtdho5EeDDUxQm/n1x
whGM72yqlFlslpnodQUqAYz1Eqe+RgP9V8KXdUVz652jqZwhuqLBjtAc9e9knwR8
MTmwsskxSp9DWTu+tCjNrwM=
-----END PRIVATE KEY-----
Certificate:
    Data:
        Version: 3 (0x2)
        Serial Number:
            14:c8:c7:f1:f1:6b:91:0b:18:45:4b:c0:65:f2:fc:07
        Signature Algorithm: sha256WithRSAEncryption
        Issuer: C=US, ST=California, L=Mountain View, O=Test CA, CN=Test Root CA
        Validity
            Not Before: Nov 15 00:47:41 2025 GMT
            Not After : Nov 13 00:47:41 2035 GMT
        Subject: C=US, ST=California, L=Mountain View, O=Test CA, CN=Test Intermediate CA
        Subject Public Key Info:
            Public Key Algorithm: rsaEncryption
                Public-Key: (2048 bit)
                Modulus:
                    00:9d:e9:bd:e4:3d:4a:2f:fb:c2:f9:e6:22:2a:42:
                    15:46:1c:8c:8f:47:4c:e9:c5:57:95:1f:66:70:93:
                    22:f0:94:c3:bb:b5:5b:ef:a4:6f:c8:c7:89:95:75:
                    ba:0c:36:bf:4e:6b:a9:35:47:08:43:9e:29:6a:e2:
                    c3:fb:03:b7:1f:b6:e1:51:6b:ed:7b:19:c7:f9:ce:
                    3b:dc:65:e9:66:c7:83:94:c4:d1:4e:ee:ed:64:4b:
                    81:f1:1a:ea:5a:64:18:1b:6a:4e:93:d0:13:6c:90:
                    60:ca:d2:4e:b7:24:16:f8:b2:08:58:9d:8d:a7:33:
                    45:15:34:81:ad:2d:2d:9c:60:ef:f9:2b:98:fe:79:
                    d3:8d:2c:48:db:12:91:f4:2e:fa:bf:f5:26:c1:82:
                    05:80:dd:4c:a8:70:bf:a7:bc:10:34:77:39:db:47:
                    04:0f:ed:44:b2:65:46:22:20:88:59:28:0f:c7:0c:
                    a2:b4:91:a5:a2:aa:ca:05:9f:8a:9b:6e:a3:cb:d4:
                    a4:e8:24:75:9d:20:81:22:5b:5f:77:3e:c9:f1:1e:
                    ae:eb:8a:33:8c:27:5b:1e:be:6d:21:1b:42:72:95:
                    e3:9e:13:03:75:a7:58:d4:be:68:12:fe:63:8e:4b:
                    11:7a:34:e7:a3:6b:dd:73:ae:3e:19:9a:ec:91:8b:
                    73:af
                Exponent: 65537 (0x10001)
        X509v3 extensions:
            X509v3 Basic Constraints: critical
                CA:TRUE
            X509v3 Subject Key Identifier: 
                17:5C:45:F3:D0:AC:1C:10:4C:8B:43:44:20:C4:DD:93:C5:C5:19:3B
            X509v3 Key Usage: critical
                Certificate Sign, CRL Sign
            X509v3 Authority Key Identifier: 
                9B:26:0B:8A:98:A9:BB:1D:B9:1F:1C:E3:1A:40:33:ED:8E:17:88:AB
    Signature Algorithm: sha256WithRSAEncryption
    Signature Value:
        aa:63:ab:8b:65:bc:04:f7:3f:ff:54:e1:6a:cc:f5:a8:bb:02:
        56:cf:67:58:ec:a9:e9:bc:7a:2d:24:85:34:3b:49:11:90:95:
        e9:95:3f:21:c7:c1:dc:69:f5:f3:07:85:ff:94:9c:54:80:ac:
        63:9c:a0:9f:29:04:88:2f:57:78:d5:e9:67:ac:7a:07:34:c0:
        bb:e4:3b:9c:eb:b4:31:45:58:17:65:08:61:45:f1:20:31:11:
        c4:1b:32:c9:50:ce:62:7d:f9:29:46:de:59:2c:62:83:9c:d1:
        0f:95:2c:e1:e2:77:cc:cd:32:1c:e4:32:3f:a5:85:88:18:48:
        f4:64:ef:b8:b2:20:7a:69:5b:2f:10:a3:35:b1:6f:f9:13:e2:
        5a:25:d2:2d:fe:d7:00:9b:f6:54:9d:ff:85:56:39:84:7d:be:
        40:6e:bc:2e:22:fe:50:6c:12:4a:85:e3:50:31:4a:26:75:fd:
        03:3f:15:a3:d0:27:ef:c3:e9:35:e9:0b:3f:ac:4d:40:6d:71:
        12:e9:cb:e3:a0:ef:0a:c9:d9:ca:da:79:d8:34:5d:62:8a:f6:
        5a:7a:77:b5:74:70:15:af:0d:00:91:e3:da:c7:03:ee:d7:7e:
        4a:8d:0c:1d:39:14:ce:e7:89:43:77:3a:9d:eb:78:cc:c7:cd:
        56:19:62:22
-----BEGIN CERTIFICATE-----
MIIDuzCCAqOgAwIBAgIQFMjH8fFrkQsYRUvAZfL8BzANBgkqhkiG9w0BAQsFADBj
MQswCQYDVQQGEwJVUzETMBEGA1UECAwKQ2FsaWZvcm5pYTEWMBQGA1UEBwwNTW91
bnRhaW4gVmlldzEQMA4GA1UECgwHVGVzdCBDQTEVMBMGA1UEAwwMVGVzdCBSb290
IENBMB4XDTI1MTExNTAwNDc0MVoXDTM1MTExMzAwNDc0MVowazELMAkGA1UEBhMC
VVMxEzARBgNVBAgMCkNhbGlmb3JuaWExFjAUBgNVBAcMDU1vdW50YWluIFZpZXcx
EDAOBgNVBAoMB1Rlc3QgQ0ExHTAbBgNVBAMMFFRlc3QgSW50ZXJtZWRpYXRlIENB
MIIBIjANBgkqhkiG9w0BAQEFAAOCAQ8AMIIBCgKCAQEAnem95D1KL/vC+eYiKkIV
RhyMj0dM6cVXlR9mcJMi8JTDu7Vb76RvyMeJlXW6DDa/TmupNUcIQ54pauLD+wO3
H7bhUWvtexnH+c473GXpZseDlMTRTu7tZEuB8RrqWmQYG2pOk9ATbJBgytJOtyQW
+LIIWJ2NpzNFFTSBrS0tnGDv+SuY/nnTjSxI2xKR9C76v/UmwYIFgN1MqHC/p7wQ
NHc520cED+1EsmVGIiCIWSgPxwyitJGloqrKBZ+Km26jy9Sk6CR1nSCBIltfdz7J
8R6u64ozjCdbHr5tIRtCcpXjnhMDdadY1L5oEv5jjksRejTno2vdc64+GZrskYtz
rwIDAQABo2MwYTAPBgNVHRMBAf8EBTADAQH/MB0GA1UdDgQWBBQXXEXz0KwcEEyL
Q0QgxN2TxcUZOzAOBgNVHQ8BAf8EBAMCAQYwHwYDVR0jBBgwFoAUmyYLipipux25
HxzjGkAz7Y4XiKswDQYJKoZIhvcNAQELBQADggEBAKpjq4tlvAT3P/9U4WrM9ai7
AlbPZ1jsqem8ei0khTQ7SRGQlemVPyHHwdxp9fMHhf+UnFSArGOcoJ8pBIgvV3jV
6Wesegc0wLvkO5zrtDFFWBdlCGFF8SAxEcQbMslQzmJ9+SlG3lksYoOc0Q+VLOHi
d8zNMhzkMj+lhYgYSPRk77iyIHppWy8QozWxb/kT4lol0i3+1wCb9lSd/4VWOYR9
vkBuvC4i/lBsEkqF41AxSiZ1/QM/FaPQJ+/D6TXpCz+sTUBtcRLpy+Og7wrJ2cra
edg0XWKK9lp6d7V0cBWvDQCR49rHA+7XfkqNDB05FM7niUN3Op3reMzHzVYZYiI=
-----END CERTIFICATE-----
