-----BEGIN PRIVATE KEY-----
MIIEvwIBADANBgkqhkiG9w0BAQEFAASCBKkwggSlAgEAAoIBAQDdMNTtFer7VSdt
l6zPVbTtl9+an2G7yIJJM/SxOmDfoxkgYKnuOfR8D45dcjVTDzyRQTxUQfIXfRWx
ZqzSjVA1ax2Jc7+nAQV58q7aIpXG1dUkxS23uYKXenkZLRdr7s97F1+xiTJxYuqB
KIIqI5q6H9TWHkgbsVbywc5hIlThH1DDPs7eopMnKfq3tK3QGemaviIhcVPFouh5
OW97udBXzeRB9niLLyHbH9tlxdUmBm+eNZu+kZtFVGz+a9bleRFPnReevSomqLfD
DYbuuCSOyXKiGOjtaiJ+MZRkHZF+arHoGq4u4bElyQf7waJyfoxnJn8qE3Ek9jo7
Ddy/g+CPAgMBAAECggEBANbEnVp/F6RmMFx3E3JV09GGz7SA4RLGQ8r0Sbjz6C/9
W15WvWj0mPEE4cTWKfS2LKcVYpClX31zFOclvNTMJX9YvFtEKmjr0vdvrltbjXZ9
FfIYCqYD2Etgvci2QbGpNYhdT6tAfdweoXg7bvefjpL+aVhmGrnY3YXkrJEgFq5m
PWoPflqmrBA7ktNI2crLa/ty/bIIH6srIJVpRRle1NdUMIv9W1vFsK0HLV+BuOoQ
TqkjMybqWapAhCfTj85fjeoMggRbJyq9+uDpZBYqIcb/qFkSnWyqEq3y+xvpQqN7
oGPaeh4+Zyb6aHcQnVHBrhr5lbo6mgGYDw/yO/KDaIECgYEA9KX/xZb6z8on36kp
f9Kv8U/eq4rcyywxJtl+HPVLcSz/fIb5pAhtGbfG9VTjc/mVlrh/lB5w7qb/Lq+f
8oGUTv5eUzUXRI+d5AZwf2aTLeHWMSn02ouK1u8bJ8C2qv8FYu7Kb5lIDTJM7SEE
7hbdPF7FPlZAh59oLdUUXW8Aj+ECgYEA53QyIwbM4nMQVbeC4T+ahkLIYfZP+Yct
PMxW49VjDuZIQzeGMbxCMebsG2BHJ3n7vh9WUDEotb2ApFaBc7ChiJCOvH3vdJWM
ljBxVebaZsKSdv8ZzbYbpJR2tO2ZzifMN67JrM3Ge7k5sgJLhxsMfn7uXIO3aPQj
lsgdWc0NPm8CgYEArVCcLgKTlHkGXnCcsa00b6PBf41UdarM91TE/wbXd0oFhNaq
LAa8I6gKDusgZ5y82JXD687U+nzb8tsAWPBrfLq/X/sQjMWheVUGhXrJcYu4DgRH
LjwFE9c4SaVAw0r/KeM5Dm5smMy1qpflwjX4bThGS68W7/2B9FYrozVsFIECgYAk
vHqguJmYb67uC/yIB/Jc0QjBE7lJ37y8Y6p+6wWX/dEGai+wgTL4fLCI/9ULXP8q
BAtNGyBdCED81IYjeKuK43bkUBDLrljsFbBHdCbCHKvmm0LbNcZZbv8QZI3+/K4b
QHDeLqMMTC/uIxMd1Js9EKSApp9b1zQ24HhYIoWxnQKBgQDxsyI6BCxtLO8wzAjW
xWie6xH3o8MXi544URFhFs3Y/xCj4slha1yYb/CBzLN/IxKtBA2Kbox4/rWHaWLT
QUmcL8vcTRTx7yvrXuMXGunoF8q7adcfPDrAqaJ4OdkMy5W5VBhHqMjj+4cIy9Yq
LkC9LPJjUl2Ai8j8tLTVGB01HQ==
-----END PRIVATE KEY-----
Certificate:
    Data:
        Version: 3 (0x2)
        Serial Number:
            14:c8:c7:f1:f1:6b:91:0b:18:45:4b:c0:65:f2:fc:0b
        Signature Algorithm: sha256WithRSAEncryption
        Issuer: C=US, ST=California, L=Mountain View, O=Test CA, CN=Test Root CA
        Validity
            Not Before: Nov 15 00:47:41 2025 GMT
            Not After : Nov 15 00:47:41 2027 GMT
        Subject: C=US, ST=California, L=Mountain View, O=Test CA, CN=localhost
        Subject Public Key Info:
            Public Key Algorithm: rsaEncryption
                Public-Key: (2048 bit)
                Modulus:
                    00:dd:30:d4:ed:15:ea:fb:55:27:6d:97:ac:cf:55:
                    b4:ed:97:df:9a:9f:61:bb:c8:82:49:33:f4:b1:3a:
                    60:df:a3:19:20:60:a9:ee:39:f4:7c:0f:8e:5d:72:
                    35:53:0f:3c:91:41:3c:54:41:f2:17:7d:15:b1:66:
                    ac:d2:8d:50:35:6b:1d:89:73:bf:a7:01:05:79:f2:
                    ae:da:22:95:c6:d5:d5:24:c5:2d:b7:b9:82:97:7a:
                    79:19:2d:17:6b:ee:cf:7b:17:5f:b1:89:32:71:62:
                    ea:81:28:82:2a:23:9a:ba:1f:d4:d6:1e:48:1b:b1:
                    56:f2:c1:ce:61:22:54:e1:1f:50:c3:3e:ce:de:a2:
                    93:27:29:fa:b7:b4:ad:d0:19:e9:9a:be:22:21:71:
                    53:c5:a2:e8:79:39:6f:7b:b9:d0:57:cd:e4:41:f6:
                    78:8b:2f:21:db:1f:db:65:c5:d5:26:06:6f:9e:35:
                    9b:be:91:9b:45:54:6c:fe:6b:d6:e5:79:11:4f:9d:
                    17:9e:bd:2a:26:a8:b7:c3:0d:86:ee:b8:24:8e:c9:
                    72:a2:18:e8:ed:6a:22:7e:31:94:64:1d:91:7e:6a:
                    b1:e8:1a:ae:2e:e1:b1:25:c9:07:fb:c1:a2:72:7e:
                    8c:67:26:7f:2a:13:71:24:f6:3a:3b:0d:dc:bf:83:
                    e0:8f
                Exponent: 65537 (0x10001)
        X509v3 extensions:
            X509v3 Basic Constraints: critical
                CA:FALSE
            X509v3 Subject Key Identifier: 
                82:64:D7:FB:A9:83:29:D9:3D:A4:7B:9E:A5:2F:1C:FB:C4:34:4D:CB
            X509v3 Authority Key Identifier: 
                9B:26:0B:8A:98:A9:BB:1D:B9:1F:1C:E3:1A:40:33:ED:8E:17:88:AB
            X509v3 Extended Key Usage: 
                TLS Web Server Authentication, TLS Web Client Authentication
            X509v3 Subject Alternative Name: 
                DNS:localhost
    Signature Algorithm: sha256WithRSAEncryption
    Signature Value:
        80:c8:7e:c9:7f:ca:31:74:19:8d:cd:2f:1f:68:cc:88:34:70:
        a2:d3:62:a4:09:be:32:18:29:0f:d8:d7:61:f9:8d:3b:5e:6e:
        12:f8:12:4d:71:78:ce:b5:64:8c:2b:2a:70:bf:c5:b4:9b:d1:
        e5:47:3a:1b:51:b3:30:87:a3:86:6e:61:db:22:2f:a9:9c:4a:
        74:fb:9b:9e:f4:cf:93:7a:1f:54:38:bc:45:30:23:16:e1:33:
        51:67:e3:3a:0c:fb:bf:bf:f3:76:d1:52:31:9a:39:f8:4b:4d:
        ba:09:a7:fe:0c:27:62:bb:81:83:ac:1c:be:67:8f:5a:80:49:
        5a:3b:f2:08:90:e5:d6:2c:77:30:04:3b:55:a3:22:80:62:f2:
        e4:4a:0d:63:5b:51:08:70:35:06:c5:51:b9:29:ea:7d:f3:06:
        92:ac:02:64:96:e6:9e:b6:fe:62:6b:b1:76:89:a5:21:63:44:
        10:d9:d3:67:dc:90:34:7a:04:09:54:f3:06:8d:b2:04:7e:18:
        fd:40:ac:37:58:17:01:98:db:b1:70:8c:0b:5f:90:b1:f0:7f:
        ae:d6:05:e3:53:7c:ac:82:b1:8c:ff:2a:34:72:14:4c:9d:34:
        8f:5f:28:c6:16:87:64:0b:15:0e:e6:66:f4:f0:53:f6:f6:66:
        6f:90:40:82
-----BEGIN CERTIFICATE-----
MIID1DCCArygAwIBAgIQFMjH8fFrkQsYRUvAZfL8CzANBgkqhkiG9w0BAQsFADBj
MQswCQYDVQQGEwJVUzETMBEGA1UECAwKQ2FsaWZvcm5pYTEWMBQGA1UEBwwNTW91
bnRhaW4gVmlldzEQMA4GA1UECgwHVGVzdCBDQTEVMBMGA1UEAwwMVGVzdCBSb290
IENBMB4XDTI1MTExNTAwNDc0MVoXDTI3MTExNTAwNDc0MVowYDELMAkGA1UEBhMC
VVMxEzARBgNVBAgMCkNhbGlmb3JuaWExFjAUBgNVBAcMDU1vdW50YWluIFZpZXcx
EDAOBgNVBAoMB1Rlc3QgQ0ExEjAQBgNVBAMMCWxvY2FsaG9zdDCCASIwDQYJKoZI
hvcNAQEBBQADggEPADCCAQoCggEBAN0w1O0V6vtVJ22XrM9VtO2X35qfYbvIgkkz
9LE6YN+jGSBgqe459HwPjl1yNVMPPJFBPFRB8hd9FbFmrNKNUDVrHYlzv6cBBXny
rtoilcbV1STFLbe5gpd6eRktF2vuz3sXX7GJMnFi6oEogiojmrof1NYeSBuxVvLB
zmEiVOEfUMM+zt6ikycp+re0rdAZ6Zq+IiFxU8Wi6Hk5b3u50FfN5EH2eIsvIdsf
22XF1SYGb541m76Rm0VUbP5r1uV5EU+dF569Kiaot8MNhu64JI7JcqIY6O1qIn4x
lGQdkX5qsegari7hsSXJB/vBonJ+jGcmfyoTcST2OjsN3L+D4I8CAwEAAaOBhjCB
gzAMBgNVHRMBAf8EAjAAMB0GA1UdDgQWBBSCZNf7qYMp2T2ke56lLxz7xDRNyzAf
BgNVHSMEGDAWgBSbJguKmKm7HbkfHOMaQDPtjheIqzAdBgNVHSUEFjAUBggrBgEF
BQcDAQYIKwYBBQUHAwIwFAYDVR0RBA0wC4IJbG9jYWxob3N0MA0GCSqGSIb3DQEB
CwUAA4IBAQCAyH7Jf8oxdBmNzS8faMyINHCi02KkCb4yGCkP2Ndh+Y07Xm4S+BJN
cXjOtWSMKypwv8W0m9HlRzobUbMwh6OGbmHbIi+pnEp0+5ue9M+Teh9UOLxFMCMW
4TNRZ+M6DPu/v/N20VIxmjn4S026Caf+DCdiu4GDrBy+Z49agElaO/IIkOXWLHcw
BDtVoyKAYvLkSg1jW1EIcDUGxVG5Kep98waSrAJkluaetv5ia7F2iaUhY0QQ2dNn
3JA0egQJVPMGjbIEfhj9QKw3WBcBmNuxcIwLX5Cx8H+u1gXjU3ysgrGM/yo0chRM
nTSPXyjGFodkCxUO5mb08FP29mZvkECC
-----END CERTIFICATE-----
