Certificate:
    Data:
        Version: 3 (0x2)
        Serial Number:
            14:c8:c7:f1:f1:6b:91:0b:18:45:4b:c0:65:f2:fc:25
        Signature Algorithm: sha256WithRSAEncryption
        Issuer: C=US, ST=California, L=Mountain View, O=Test CA, CN=Test Root CA
        Validity
            Not Before: May  1 00:00:00 2018 GMT
            Not After : Aug  3 00:00:00 2020 GMT
        Subject: C=US, ST=California, L=Mountain View, O=Test CA, CN=127.0.0.1
        Subject Public Key Info:
            Public Key Algorithm: rsaEncryption
                Public-Key: (2048 bit)
                Modulus:
                    00:9c:3f:8e:ac:ef:75:ca:a9:89:60:81:ac:94:aa:
                    d1:1b:81:26:4c:75:dc:56:eb:7f:10:01:31:cd:89:
                    f1:6e:c0:fe:21:c9:22:82:53:fe:0f:35:6b:66:4f:
                    21:4f:e8:e7:93:aa:c4:4d:a0:53:f8:6d:2d:4b:ec:
                    4a:11:fc:50:6a:bc:ec:59:c1:2d:d8:6f:93:44:86:
                    25:16:b0:61:83:89:79:23:18:ae:bf:e7:77:f8:05:
                    74:10:c9:30:e6:4e:e8:c9:c6:48:36:bc:5a:40:c1:
                    72:d3:74:cc:8d:16:5d:8d:21:66:b5:19:f1:97:3d:
                    3e:39:e2:fc:fb:44:3c:fc:73:8b:4c:84:4c:c8:9c:
                    2c:26:b9:70:e9:35:a3:ff:37:d7:ea:12:92:b6:d3:
                    37:4c:e5:ca:b2:72:08:5c:ff:42:5a:14:76:fb:5b:
                    1f:5f:27:3e:93:89:0e:11:79:78:a0:d1:cb:1b:ce:
                    c6:04:70:f7:b7:fe:fb:f7:5b:1a:ff:5a:32:7a:0d:
                    7b:b7:66:10:af:73:4d:bf:c4:a6:bf:81:e4:cb:9c:
                    5e:f1:4b:f9:7f:a3:91:00:2d:ad:4c:08:8f:51:59:
                    9a:0f:7a:c9:eb:3a:8c:33:91:53:13:a5:24:18:27:
                    71:58:44:fb:61:1c:87:e4:42:8f:d0:08:9e:c5:24:
                    4d:0f
                Exponent: 65537 (0x10001)
        X509v3 extensions:
            X509v3 Basic Constraints: critical
                CA:FALSE
            X509v3 Subject Key Identifier: 
                47:2B:01:1E:62:50:D1:37:B2:34:59:5F:7A:02:60:51:A8:21:55:4C
            X509v3 Authority Key Identifier: 
                9B:26:0B:8A:98:A9:BB:1D:B9:1F:1C:E3:1A:40:33:ED:8E:17:88:AB
            X509v3 Extended Key Usage: 
                TLS Web Server Authentication, TLS Web Client Authentication
            X509v3 Subject Alternative Name: 
                IP Address:127.0.0.1
    Signature Algorithm: sha256WithRSAEncryption
    Signature Value:
        48:e6:7f:bf:f4:9f:33:39:27:47:09:4d:90:aa:f6:3f:6a:af:
        ed:15:5d:ab:25:28:e5:a1:a0:e1:25:45:4f:fa:70:7e:02:1b:
        df:7b:cb:8d:3d:87:00:25:ea:01:d9:38:0b:98:9e:d9:f3:84:
        6f:1e:e6:5a:cc:d0:3f:13:54:d0:74:d4:0e:a5:45:32:15:32:
        dd:ac:32:71:5c:ea:14:12:07:70:0d:41:0c:43:6d:f0:67:87:
        cc:52:63:c8:d1:61:3e:17:2d:a6:b2:ff:b5:63:39:95:d8:4a:
        46:7f:0e:a7:67:ce:d7:46:70:4b:f9:5c:78:d9:19:88:3f:26:
        b2:a6:aa:14:22:ca:ec:67:13:55:88:10:04:e7:ac:88:06:70:
        5c:65:8a:ac:12:c8:d8:7d:04:7a:a7:f6:4d:0f:0f:a5:fd:cb:
        15:65:a6:64:b8:86:8e:e4:f4:2e:94:54:11:ae:98:44:41:76:
        af:9a:87:a5:39:c2:86:eb:3f:3b:c2:55:09:ae:3e:96:b0:26:
        a0:ed:17:31:d0:3e:dc:3f:21:44:e9:c6:64:db:13:0a:ee:cf:
        39:b0:a9:fc:50:51:03:b3:1c:40:9b:99:c0:2f:62:f3:1d:8d:
        79:2a:2b:3f:72:8f:bc:bc:e5:6b:91:1c:b5:b5:e3:55:ad:38:
        3b:68:a5:ed
-----BEGIN CERTIFICATE-----
MIIDzjCCAragAwIBAgIQFMjH8fFrkQsYRUvAZfL8JTANBgkqhkiG9w0BAQsFADBj
MQswCQYDVQQGEwJVUzETMBEGA1UECAwKQ2FsaWZvcm5pYTEWMBQGA1UEBwwNTW91
bnRhaW4gVmlldzEQMA4GA1UECgwHVGVzdCBDQTEVMBMGA1UEAwwMVGVzdCBSb290
IENBMB4XDTE4MDUwMTAwMDAwMFoXDTIwMDgwMzAwMDAwMFowYDELMAkGA1UEBhMC
VVMxEzARBgNVBAgMCkNhbGlmb3JuaWExFjAUBgNVBAcMDU1vdW50YWluIFZpZXcx
EDAOBgNVBAoMB1Rlc3QgQ0ExEjAQBgNVBAMMCTEyNy4wLjAuMTCCASIwDQYJKoZI
hvcNAQEBBQADggEPADCCAQoCggEBAJw/jqzvdcqpiWCBrJSq0RuBJkx13FbrfxAB
Mc2J8W7A/iHJIoJT/g81a2ZPIU/o55OqxE2gU/htLUvsShH8UGq87FnBLdhvk0SG
JRawYYOJeSMYrr/nd/gFdBDJMOZO6MnGSDa8WkDBctN0zI0WXY0hZrUZ8Zc9Pjni
/PtEPPxzi0yETMicLCa5cOk1o/831+oSkrbTN0zlyrJyCFz/QloUdvtbH18nPpOJ
DhF5eKDRyxvOxgRw97f++/dbGv9aMnoNe7dmEK9zTb/Epr+B5MucXvFL+X+jkQAt
rUwIj1FZmg96yes6jDORUxOlJBgncVhE+2Ech+RCj9AInsUkTQ8CAwEAAaOBgDB+
MAwGA1UdEwEB/wQCMAAwHQYDVR0OBBYEFEcrAR5iUNE3sjRZX3oCYFGoIVVMMB8G
A1UdIwQYMBaAFJsmC4qYqbsduR8c4xpAM+2OF4irMB0GA1UdJQQWMBQGCCsGAQUF
BwMBBggrBgEFBQcDAjAPBgNVHREECDAGhwR/AAABMA0GCSqGSIb3DQEBCwUAA4IB
AQBI5n+/9J8zOSdHCU2QqvY/aq/tFV2rJSjloaDhJUVP+nB+Ahvfe8uNPYcAJeoB
2TgLmJ7Z84RvHuZazNA/E1TQdNQOpUUyFTLdrDJxXOoUEgdwDUEMQ23wZ4fMUmPI
0WE+Fy2msv+1YzmV2EpGfw6nZ87XRnBL+Vx42RmIPyaypqoUIsrsZxNViBAE56yI
BnBcZYqsEsjYfQR6p/ZNDw+l/csVZaZkuIaO5PQulFQRrphEQXavmoelOcKG6z87
wlUJrj6WsCag7Rcx0D7cPyFE6cZk2xMK7s85sKn8UFEDsxxAm5nAL2LzHY15Kis/
co+8vOVrkRy1teNVrTg7aKXt
-----END CERTIFICATE-----
