-----BEGIN PRIVATE KEY-----
MIIEvAIBADANBgkqhkiG9w0BAQEFAASCBKYwggSiAgEAAoIBAQCiVRmZF9Joj2Ii
Q+topqfn/1rdEOWWrQ334Z95u/Di2OnNzImxnobNU/jkc1x5TEGBfMzJsdDKYos9
iI4IqrrtNEmuza4dY/mMWAHCMDVB7z00vS2IdaTeygjBst6wV5SE3GQHv1+BSXsB
Amqd89xMcJgzCdIX0+JqdBi9eh5I4igstf+GFzPQJFnhQkgfbzf77/7nbwDtNLzA
TW/JTyBcv9Cmy1GUvF5gmCRoNmtHotKwDYHzbuX9bUciaJ0MsFnfJXBM4qk+uM9H
7PO3UQLplNoiLgfYXDu7cK640ig9MKZ83KispAoJfQZxyXfl72SEN5zj/ALIeL/G
jT+XQLYjAgMBAAECggEAEZZvxg73LH3wb271Z+q6gV/Au/fTMB6Cx2sKCLnskN9Y
gYQaHQTkbQWejz3SdI/m/v0DAQ1DZlID7QBJBzZcN0v1ebtuFGAbDvIQCraHZqPh
eT/P2ZuJZ9vy0+2pw+hRPo3URqSc19iau5LD82YS5bNDQjBbs1oxC0CV152N/25Z
AfHsO602BASq5Bb5wzDNVsTTLqKkoytQO51ueOSLUPpAz2Mn+9qP0mocdNOp76fm
pADejx38uRuxwXJfl5NpHN4MoooR9UpmoMgNp+A1RKs/mHqJoHKeFfVw0Wzamq/2
G0goYGDg6LSKcaWbodFBHC2LD6M2rAV/EGWLXLdcSQKBgQDdaGIcU4NsACKfKkAs
OYkM4lAlKEkefgdFui75VDhq5ImZ2xRj3vYlJbyTg3KFTCGb941Dol32S59f7wVl
8H3ILS96HC3FU1pKE40Sf9aeEsAG+cfKaaf8RRHNHvtC9RWmT400yyI7WL5kViQl
AkvaArBCjA2t3wdUEmQUDHT6qwKBgQC7seOAWj0L0dtfEyqjhsTRSZsqVA51LhWQ
lrBVT+9GyJv3LHvy/dgeML87fAGvYq22I2ZtOR/wwTPHLgwEi+j+mom6ZE9qv2N/
qevhAMDbGZ7TIbBFzCWQVAvkuXPRmETLYq2xC3uGDpgxyyv+ISH3X3PNmdhvlU4x
bTiXfvGyaQKBgDufEExwcMN0hd42knFWTQGbL9nRr172sR6ltGCPvWGLiUJVLHh4
YfA+6TkP/JbImYRWdUPxRTw9wP0kcF+zEywEfvRzAiBRAc9Q1HxW0IRgqDU4rgRj
z0ivkMubvC2bsejHI09EJEO28g4y5CjTJXnfn3dMH6LinCaXjTuY3ydhAoGAHek/
ZBj9WYDcAM7BIMY9X0znmVtD4pCxhxU8jJvsec9Ga6F/Lz4cztLd5tDgQ97p5/jE
Peu4l1lysu83oxHY05o1EKsjrNNLO/EMUhMYqNHwaZ0Yxka+Rb3fF1gmiORHMlJL
c8dsq/RvdJ/4JsuI6i8f+UfnIgEdMOtC9YGZauECgYB7tmVAAujGQQiuVPsRrMv3
Ijui5j9MzQTRnNNS+3qRgRycOZU53LTIR6NoOO4Bjb42mD1ztOVCbSEMs869nOue
9cc/5gcISzeniASknHpimhp6g7y4xG3uGlAH440uZ2SxPNAjwN9M4T4JR1arHSZF
gSoOWZ4ije0g/q4qZIj9Hg==
-----END PRIVATE KEY-----
Certificate:
    Data:
        Version: 3 (0x2)
        Serial Number:
            14:c8:c7:f1:f1:6b:91:0b:18:45:4b:c0:65:f2:fc:09
        Signature Algorithm: sha256WithRSAEncryption
        Issuer: C=US, ST=California, L=Mountain View, O=Test CA, CN=Test Root CA
        Validity
            Not Before: Nov 15 00:47:41 2025 GMT
            Not After : Nov 15 00:47:41 2027 GMT
        Subject: C=US, ST=California, L=Mountain View, O=Test CA, CN=127.0.0.1
        Subject Public Key Info:
            Public Key Algorithm: rsaEncryption
                Public-Key: (2048 bit)
                Modulus:
                    00:a2:55:19:99:17:d2:68:8f:62:22:43:eb:68:a6:
                    a7:e7:ff:5a:dd:10:e5:96:ad:0d:f7:e1:9f:79:bb:
                    f0:e2:d8:e9:cd:cc:89:b1:9e:86:cd:53:f8:e4:73:
                    5c:79:4c:41:81:7c:cc:c9:b1:d0:ca:62:8b:3d:88:
                    8e:08:aa:ba:ed:34:49:ae:cd:ae:1d:63:f9:8c:58:
                    01:c2:30:35:41:ef:3d:34:bd:2d:88:75:a4:de:ca:
                    08:c1:b2:de:b0:57:94:84:dc:64:07:bf:5f:81:49:
                    7b:01:02:6a:9d:f3:dc:4c:70:98:33:09:d2:17:d3:
                    e2:6a:74:18:bd:7a:1e:48:e2:28:2c:b5:ff:86:17:
                    33:d0:24:59:e1:42:48:1f:6f:37:fb:ef:fe:e7:6f:
                    00:ed:34:bc:c0:4d:6f:c9:4f:20:5c:bf:d0:a6:cb:
                    51:94:bc:5e:60:98:24:68:36:6b:47:a2:d2:b0:0d:
                    81:f3:6e:e5:fd:6d:47:22:68:9d:0c:b0:59:df:25:
                    70:4c:e2:a9:3e:b8:cf:47:ec:f3:b7:51:02:e9:94:
                    da:22:2e:07:d8:5c:3b:bb:70:ae:b8:d2:28:3d:30:
                    a6:7c:dc:a8:ac:a4:0a:09:7d:06:71:c9:77:e5:ef:
                    64:84:37:9c:e3:fc:02:c8:78:bf:c6:8d:3f:97:40:
                    b6:23
                Exponent: 65537 (0x10001)
        X509v3 extensions:
            X509v3 Basic Constraints: critical
                CA:FALSE
            X509v3 Subject Key Identifier: 
                9A:0C:FA:60:67:33:AA:D3:A9:13:6E:55:7F:C1:65:8E:DE:01:ED:C0
            X509v3 Authority Key Identifier: 
                9B:26:0B:8A:98:A9:BB:1D:B9:1F:1C:E3:1A:40:33:ED:8E:17:88:AB
            X509v3 Extended Key Usage: 
                TLS Web Server Authentication, TLS Web Client Authentication
            X509v3 Subject Alternative Name: 
                IP Address:127.0.0.1
    Signature Algorithm: sha256WithRSAEncryption
    Signature Value:
        92:aa:32:41:96:0c:e0:6a:7b:93:eb:aa:9a:bb:c0:74:03:8e:
        07:40:32:5d:5d:a5:4f:ec:37:5d:93:2e:98:bb:ea:94:6e:25:
        5e:ca:91:f8:63:24:a7:e8:56:a8:29:96:51:67:6d:42:a5:50:
        97:c1:59:9e:19:97:81:46:1e:c3:a5:67:90:4a:a1:ca:f6:ff:
        6d:74:ff:e5:3f:9e:9f:38:f7:76:f3:c0:d4:79:26:c7:9e:c9:
        71:a1:37:73:b3:a1:c1:07:a7:b1:39:1b:9e:4e:59:25:4b:c5:
        a6:c3:82:82:41:13:7f:23:8c:1b:dc:53:88:4a:44:b4:f4:cb:
        f3:0b:9a:ab:b2:13:a7:6d:bf:11:b0:04:8f:b7:82:2e:5a:70:
        67:55:98:6a:cb:a6:18:fe:ee:ae:df:b5:97:ef:c1:c2:55:2e:
        10:58:5e:30:f8:69:6d:0c:15:6a:0d:da:5b:80:99:6a:b8:df:
        d1:6b:16:f2:6c:55:81:a9:83:e0:55:fc:0a:e6:4b:09:33:f2:
        9f:9a:de:eb:27:c7:35:be:c2:47:17:4e:9e:79:a6:15:2b:d3:
        32:7a:97:e0:0f:53:2c:e2:2b:0a:3a:62:ef:e7:79:c1:65:1e:
        23:13:b2:08:f5:9e:5a:66:bc:34:12:3a:62:26:2d:06:b6:8b:
        e9:85:b8:cf
-----BEGIN CERTIFICATE-----
MIIDzjCCAragAwIBAgIQFMjH8fFrkQsYRUvAZfL8CTANBgkqhkiG9w0BAQsFADBj
MQswCQYDVQQGEwJVUzETMBEGA1UECAwKQ2FsaWZvcm5pYTEWMBQGA1UEBwwNTW91
bnRhaW4gVmlldzEQMA4GA1UECgwHVGVzdCBDQTEVMBMGA1UEAwwMVGVzdCBSb290
IENBMB4XDTI1MTExNTAwNDc0MVoXDTI3MTExNTAwNDc0MVowYDELMAkGA1UEBhMC
VVMxEzARBgNVBAgMCkNhbGlmb3JuaWExFjAUBgNVBAcMDU1vdW50YWluIFZpZXcx
EDAOBgNVBAoMB1Rlc3QgQ0ExEjAQBgNVBAMMCTEyNy4wLjAuMTCCASIwDQYJKoZI
hvcNAQEBBQADggEPADCCAQoCggEBAKJVGZkX0miPYiJD62imp+f/Wt0Q5ZatDffh
n3m78OLY6c3MibGehs1T+ORzXHlMQYF8zMmx0Mpiiz2Ijgiquu00Sa7Nrh1j+YxY
AcIwNUHvPTS9LYh1pN7KCMGy3rBXlITcZAe/X4FJewECap3z3ExwmDMJ0hfT4mp0
GL16HkjiKCy1/4YXM9AkWeFCSB9vN/vv/udvAO00vMBNb8lPIFy/0KbLUZS8XmCY
JGg2a0ei0rANgfNu5f1tRyJonQywWd8lcEziqT64z0fs87dRAumU2iIuB9hcO7tw
rrjSKD0wpnzcqKykCgl9BnHJd+XvZIQ3nOP8Ash4v8aNP5dAtiMCAwEAAaOBgDB+
MAwGA1UdEwEB/wQCMAAwHQYDVR0OBBYEFJoM+mBnM6rTqRNuVX/BZY7eAe3AMB8G
A1UdIwQYMBaAFJsmC4qYqbsduR8c4xpAM+2OF4irMB0GA1UdJQQWMBQGCCsGAQUF
BwMBBggrBgEFBQcDAjAPBgNVHREECDAGhwR/AAABMA0GCSqGSIb3DQEBCwUAA4IB
AQCSqjJBlgzganuT66qau8B0A44HQDJdXaVP7Dddky6Yu+qUbiVeypH4YySn6Fao
KZZRZ21CpVCXwVmeGZeBRh7DpWeQSqHK9v9tdP/lP56fOPd288DUeSbHnslxoTdz
s6HBB6exORueTlklS8Wmw4KCQRN/I4wb3FOISkS09MvzC5qrshOnbb8RsASPt4Iu
WnBnVZhqy6YY/u6u37WX78HCVS4QWF4w+GltDBVqDdpbgJlquN/RaxbybFWBqYPg
VfwK5ksJM/Kfmt7rJ8c1vsJHF06eeaYVK9MyepfgD1Ms4isKOmLv53nBZR4jE7II
9Z5aZrw0EjpiJi0GtovphbjP
-----END CERTIFICATE-----
