-----BEGIN PRIVATE KEY-----
MIIEvAIBADANBgkqhkiG9w0BAQEFAASCBKYwggSiAgEAAoIBAQCiVRmZF9Joj2Ii
Q+topqfn/1rdEOWWrQ334Z95u/Di2OnNzImxnobNU/jkc1x5TEGBfMzJsdDKYos9
iI4IqrrtNEmuza4dY/mMWAHCMDVB7z00vS2IdaTeygjBst6wV5SE3GQHv1+BSXsB
Amqd89xMcJgzCdIX0+JqdBi9eh5I4igstf+GFzPQJFnhQkgfbzf77/7nbwDtNLzA
TW/JTyBcv9Cmy1GUvF5gmCRoNmtHotKwDYHzbuX9bUciaJ0MsFnfJXBM4qk+uM9H
7PO3UQLplNoiLgfYXDu7cK640ig9MKZ83KispAoJfQZxyXfl72SEN5zj/ALIeL/G
jT+XQLYjAgMBAAECggEAEZZvxg73LH3wb271Z+q6gV/Au/fTMB6Cx2sKCLnskN9Y
gYQaHQTkbQWejz3SdI/m/v0DAQ1DZlID7QBJBzZcN0v1ebtuFGAbDvIQCraHZqPh
eT/P2ZuJZ9vy0+2pw+hRPo3URqSc19iau5LD82YS5bNDQjBbs1oxC0CV152N/25Z
AfHsO602BASq5Bb5wzDNVsTTLqKkoytQO51ueOSLUPpAz2Mn+9qP0mocdNOp76fm
pADejx38uRuxwXJfl5NpHN4MoooR9UpmoMgNp+A1RKs/mHqJoHKeFfVw0Wzamq/2
G0goYGDg6LSKcaWbodFBHC2LD6M2rAV/EGWLXLdcSQKBgQDdaGIcU4NsACKfKkAs
OYkM4lAlKEkefgdFui75VDhq5ImZ2xRj3vYlJbyTg3KFTCGb941Dol32S59f7wVl
8H3ILS96HC3FU1pKE40Sf9aeEsAG+cfKaaf8RRHNHvtC9RWmT400yyI7WL5kViQl
AkvaArBCjA2t3wdUEmQUDHT6qwKBgQC7seOAWj0L0dtfEyqjhsTRSZsqVA51LhWQ
lrBVT+9GyJv3LHvy/dgeML87fAGvYq22I2ZtOR/wwTPHLgwEi+j+mom6ZE9qv2N/
qevhAMDbGZ7TIbBFzCWQVAvkuXPRmETLYq2xC3uGDpgxyyv+ISH3X3PNmdhvlU4x
bTiXfvGyaQKBgDufEExwcMN0hd42knFWTQGbL9nRr172sR6ltGCPvWGLiUJVLHh4
YfA+6TkP/JbImYRWdUPxRTw9wP0kcF+zEywEfvRzAiBRAc9Q1HxW0IRgqDU4rgRj
z0ivkMubvC2bsejHI09EJEO28g4y5CjTJXnfn3dMH6LinCaXjTuY3ydhAoGAHek/
ZBj9WYDcAM7BIMY9X0znmVtD4pCxhxU8jJvsec9Ga6F/Lz4cztLd5tDgQ97p5/jE
Peu4l1lysu83oxHY05o1EKsjrNNLO/EMUhMYqNHwaZ0Yxka+Rb3fF1gmiORHMlJL
c8dsq/RvdJ/4JsuI6i8f+UfnIgEdMOtC9YGZauECgYB7tmVAAujGQQiuVPsRrMv3
Ijui5j9MzQTRnNNS+3qRgRycOZU53LTIR6NoOO4Bjb42mD1ztOVCbSEMs869nOue
9cc/5gcISzeniASknHpimhp6g7y4xG3uGlAH440uZ2SxPNAjwN9M4T4JR1arHSZF
gSoOWZ4ije0g/q4qZIj9Hg==
-----END PRIVATE KEY-----
Certificate:
    Data:
        Version: 3 (0x2)
        Serial Number:
            7d:8c:25:81:80:23:3b:21:39:e9:3f:f4:50:f9:b7:a0
        Signature Algorithm: sha256WithRSAEncryption
        Issuer: C=US, ST=California, L=Mountain View, O=Test CA, CN=Test Intermediate CA
        Validity
            Not Before: Nov 15 00:47:41 2025 GMT
            Not After : Nov 15 00:47:41 2027 GMT
        Subject: C=US, ST=California, L=Mountain View, O=Test CA, CN=127.0.0.1
        Subject Public Key Info:
            Public Key Algorithm: rsaEncryption
                Public-Key: (2048 bit)
                Modulus:
                    00:a2:55:19:99:17:d2:68:8f:62:22:43:eb:68:a6:
                    a7:e7:ff:5a:dd:10:e5:96:ad:0d:f7:e1:9f:79:bb:
                    f0:e2:d8:e9:cd:cc:89:b1:9e:86:cd:53:f8:e4:73:
                    5c:79:4c:41:81:7c:cc:c9:b1:d0:ca:62:8b:3d:88:
                    8e:08:aa:ba:ed:34:49:ae:cd:ae:1d:63:f9:8c:58:
                    01:c2:30:35:41:ef:3d:34:bd:2d:88:75:a4:de:ca:
                    08:c1:b2:de:b0:57:94:84:dc:64:07:bf:5f:81:49:
                    7b:01:02:6a:9d:f3:dc:4c:70:98:33:09:d2:17:d3:
                    e2:6a:74:18:bd:7a:1e:48:e2:28:2c:b5:ff:86:17:
                    33:d0:24:59:e1:42:48:1f:6f:37:fb:ef:fe:e7:6f:
                    00:ed:34:bc:c0:4d:6f:c9:4f:20:5c:bf:d0:a6:cb:
                    51:94:bc:5e:60:98:24:68:36:6b:47:a2:d2:b0:0d:
                    81:f3:6e:e5:fd:6d:47:22:68:9d:0c:b0:59:df:25:
                    70:4c:e2:a9:3e:b8:cf:47:ec:f3:b7:51:02:e9:94:
                    da:22:2e:07:d8:5c:3b:bb:70:ae:b8:d2:28:3d:30:
                    a6:7c:dc:a8:ac:a4:0a:09:7d:06:71:c9:77:e5:ef:
                    64:84:37:9c:e3:fc:02:c8:78:bf:c6:8d:3f:97:40:
                    b6:23
                Exponent: 65537 (0x10001)
        X509v3 extensions:
            X509v3 Basic Constraints: critical
                CA:FALSE
            X509v3 Subject Key Identifier: 
                9A:0C:FA:60:67:33:AA:D3:A9:13:6E:55:7F:C1:65:8E:DE:01:ED:C0
            X509v3 Authority Key Identifier: 
                17:5C:45:F3:D0:AC:1C:10:4C:8B:43:44:20:C4:DD:93:C5:C5:19:3B
            X509v3 Extended Key Usage: 
                TLS Web Server Authentication, TLS Web Client Authentication
            X509v3 Subject Alternative Name: 
                IP Address:127.0.0.1
    Signature Algorithm: sha256WithRSAEncryption
    Signature Value:
        53:bd:68:92:e9:ec:03:26:df:7b:df:37:a7:ed:6d:4d:90:34:
        af:61:84:57:8e:a4:0a:e6:bf:e6:87:66:53:c6:86:42:5a:a0:
        d1:36:48:2f:cf:b1:a9:ee:eb:ed:3b:cb:80:14:20:5d:e6:0a:
        30:69:2f:2c:08:0a:0c:3b:f4:47:ec:44:6f:36:7f:b2:65:6f:
        cf:db:68:f6:01:8d:6d:65:74:fd:b7:91:c1:cd:b5:09:50:02:
        56:0b:49:37:48:ad:a3:86:cc:75:a7:55:71:0f:1a:3e:fd:0b:
        30:20:6a:c3:83:46:e1:89:ca:57:5a:6a:4a:d5:e4:56:b7:ab:
        84:4b:e7:52:5a:b2:1e:23:30:9c:96:13:f6:ce:a9:27:bc:8f:
        ea:95:4c:dd:d3:5d:34:c8:92:c0:3f:1a:0d:07:ce:77:cc:eb:
        f0:48:85:9b:54:85:eb:20:dd:60:82:5a:f7:31:c4:26:8a:1d:
        f0:65:1b:92:85:d4:42:86:55:8d:97:a2:2b:07:04:0d:0e:2d:
        ee:15:a5:53:da:f6:22:07:26:4d:1c:2d:dd:78:3d:36:ae:a0:
        30:f0:b6:58:b8:26:e8:76:52:0f:76:aa:b5:63:da:20:ce:a9:
        b1:c6:80:4e:83:c9:91:95:2b:cf:97:79:d7:05:d4:fa:24:b0:
        2d:41:69:31
-----BEGIN CERTIFICATE-----
MIID1jCCAr6gAwIBAgIQfYwlgYAjOyE56T/0UPm3oDANBgkqhkiG9w0BAQsFADBr
MQswCQYDVQQGEwJVUzETMBEGA1UECAwKQ2FsaWZvcm5pYTEWMBQGA1UEBwwNTW91
bnRhaW4gVmlldzEQMA4GA1UECgwHVGVzdCBDQTEdMBsGA1UEAwwUVGVzdCBJbnRl
cm1lZGlhdGUgQ0EwHhcNMjUxMTE1MDA0NzQxWhcNMjcxMTE1MDA0NzQxWjBgMQsw
CQYDVQQGEwJVUzETMBEGA1UECAwKQ2FsaWZvcm5pYTEWMBQGA1UEBwwNTW91bnRh
aW4gVmlldzEQMA4GA1UECgwHVGVzdCBDQTESMBAGA1UEAwwJMTI3LjAuMC4xMIIB
IjANBgkqhkiG9w0BAQEFAAOCAQ8AMIIBCgKCAQEAolUZmRfSaI9iIkPraKan5/9a
3RDllq0N9+Gfebvw4tjpzcyJsZ6GzVP45HNceUxBgXzMybHQymKLPYiOCKq67TRJ
rs2uHWP5jFgBwjA1Qe89NL0tiHWk3soIwbLesFeUhNxkB79fgUl7AQJqnfPcTHCY
MwnSF9PianQYvXoeSOIoLLX/hhcz0CRZ4UJIH283++/+528A7TS8wE1vyU8gXL/Q
pstRlLxeYJgkaDZrR6LSsA2B827l/W1HImidDLBZ3yVwTOKpPrjPR+zzt1EC6ZTa
Ii4H2Fw7u3CuuNIoPTCmfNyorKQKCX0Gccl35e9khDec4/wCyHi/xo0/l0C2IwID
AQABo4GAMH4wDAYDVR0TAQH/BAIwADAdBgNVHQ4EFgQUmgz6YGczqtOpE25Vf8Fl
jt4B7cAwHwYDVR0jBBgwFoAUF1xF89CsHBBMi0NEIMTdk8XFGTswHQYDVR0lBBYw
FAYIKwYBBQUHAwEGCCsGAQUFBwMCMA8GA1UdEQQIMAaHBH8AAAEwDQYJKoZIhvcN
AQELBQADggEBAFO9aJLp7AMm33vfN6ftbU2QNK9hhFeOpArmv+aHZlPGhkJaoNE2
SC/Psanu6+07y4AUIF3mCjBpLywICgw79EfsRG82f7Jlb8/baPYBjW1ldP23kcHN
tQlQAlYLSTdIraOGzHWnVXEPGj79CzAgasODRuGJyldaakrV5Fa3q4RL51Jash4j
MJyWE/bOqSe8j+qVTN3TXTTIksA/Gg0HznfM6/BIhZtUhesg3WCCWvcxxCaKHfBl
G5KF1EKGVY2XoisHBA0OLe4VpVPa9iIHJk0cLd14PTauoDDwtli4Juh2Ug92qrVj
2iDOqbHGgE6DyZGVK8+XedcF1PoksC1BaTE=
-----END CERTIFICATE-----
Certificate:
    Data:
        Version: 3 (0x2)
        Serial Number:
            14:c8:c7:f1:f1:6b:91:0b:18:45:4b:c0:65:f2:fc:07
        Signature Algorithm: sha256WithRSAEncryption
        Issuer: C=US, ST=California, L=Mountain View, O=Test CA, CN=Test Root CA
        Validity
            Not Before: Nov 15 00:47:41 2025 GMT
            Not After : Nov 13 00:47:41 2035 GMT
        Subject: C=US, ST=California, L=Mountain View, O=Test CA, CN=Test Intermediate CA
        Subject Public Key Info:
            Public Key Algorithm: rsaEncryption
                Public-Key: (2048 bit)
                Modulus:
                    00:9d:e9:bd:e4:3d:4a:2f:fb:c2:f9:e6:22:2a:42:
                    15:46:1c:8c:8f:47:4c:e9:c5:57:95:1f:66:70:93:
                    22:f0:94:c3:bb:b5:5b:ef:a4:6f:c8:c7:89:95:75:
                    ba:0c:36:bf:4e:6b:a9:35:47:08:43:9e:29:6a:e2:
                    c3:fb:03:b7:1f:b6:e1:51:6b:ed:7b:19:c7:f9:ce:
                    3b:dc:65:e9:66:c7:83:94:c4:d1:4e:ee:ed:64:4b:
                    81:f1:1a:ea:5a:64:18:1b:6a:4e:93:d0:13:6c:90:
                    60:ca:d2:4e:b7:24:16:f8:b2:08:58:9d:8d:a7:33:
                    45:15:34:81:ad:2d:2d:9c:60:ef:f9:2b:98:fe:79:
                    d3:8d:2c:48:db:12:91:f4:2e:fa:bf:f5:26:c1:82:
                    05:80:dd:4c:a8:70:bf:a7:bc:10:34:77:39:db:47:
                    04:0f:ed:44:b2:65:46:22:20:88:59:28:0f:c7:0c:
                    a2:b4:91:a5:a2:aa:ca:05:9f:8a:9b:6e:a3:cb:d4:
                    a4:e8:24:75:9d:20:81:22:5b:5f:77:3e:c9:f1:1e:
                    ae:eb:8a:33:8c:27:5b:1e:be:6d:21:1b:42:72:95:
                    e3:9e:13:03:75:a7:58:d4:be:68:12:fe:63:8e:4b:
                    11:7a:34:e7:a3:6b:dd:73:ae:3e:19:9a:ec:91:8b:
                    73:af
                Exponent: 65537 (0x10001)
        X509v3 extensions:
            X509v3 Basic Constraints: critical
                CA:TRUE
            X509v3 Subject Key Identifier: 
                17:5C:45:F3:D0:AC:1C:10:4C:8B:43:44:20:C4:DD:93:C5:C5:19:3B
            X509v3 Key Usage: critical
                Certificate Sign, CRL Sign
            X509v3 Authority Key Identifier: 
                9B:26:0B:8A:98:A9:BB:1D:B9:1F:1C:E3:1A:40:33:ED:8E:17:88:AB
    Signature Algorithm: sha256WithRSAEncryption
    Signature Value:
        aa:63:ab:8b:65:bc:04:f7:3f:ff:54:e1:6a:cc:f5:a8:bb:02:
        56:cf:67:58:ec:a9:e9:bc:7a:2d:24:85:34:3b:49:11:90:95:
        e9:95:3f:21:c7:c1:dc:69:f5:f3:07:85:ff:94:9c:54:80:ac:
        63:9c:a0:9f:29:04:88:2f:57:78:d5:e9:67:ac:7a:07:34:c0:
        bb:e4:3b:9c:eb:b4:31:45:58:17:65:08:61:45:f1:20:31:11:
        c4:1b:32:c9:50:ce:62:7d:f9:29:46:de:59:2c:62:83:9c:d1:
        0f:95:2c:e1:e2:77:cc:cd:32:1c:e4:32:3f:a5:85:88:18:48:
        f4:64:ef:b8:b2:20:7a:69:5b:2f:10:a3:35:b1:6f:f9:13:e2:
        5a:25:d2:2d:fe:d7:00:9b:f6:54:9d:ff:85:56:39:84:7d:be:
        40:6e:bc:2e:22:fe:50:6c:12:4a:85:e3:50:31:4a:26:75:fd:
        03:3f:15:a3:d0:27:ef:c3:e9:35:e9:0b:3f:ac:4d:40:6d:71:
        12:e9:cb:e3:a0:ef:0a:c9:d9:ca:da:79:d8:34:5d:62:8a:f6:
        5a:7a:77:b5:74:70:15:af:0d:00:91:e3:da:c7:03:ee:d7:7e:
        4a:8d:0c:1d:39:14:ce:e7:89:43:77:3a:9d:eb:78:cc:c7:cd:
        56:19:62:22
-----BEGIN CERTIFICATE-----
MIIDuzCCAqOgAwIBAgIQFMjH8fFrkQsYRUvAZfL8BzANBgkqhkiG9w0BAQsFADBj
MQswCQYDVQQGEwJVUzETMBEGA1UECAwKQ2FsaWZvcm5pYTEWMBQGA1UEBwwNTW91
bnRhaW4gVmlldzEQMA4GA1UECgwHVGVzdCBDQTEVMBMGA1UEAwwMVGVzdCBSb290
IENBMB4XDTI1MTExNTAwNDc0MVoXDTM1MTExMzAwNDc0MVowazELMAkGA1UEBhMC
VVMxEzARBgNVBAgMCkNhbGlmb3JuaWExFjAUBgNVBAcMDU1vdW50YWluIFZpZXcx
EDAOBgNVBAoMB1Rlc3QgQ0ExHTAbBgNVBAMMFFRlc3QgSW50ZXJtZWRpYXRlIENB
MIIBIjANBgkqhkiG9w0BAQEFAAOCAQ8AMIIBCgKCAQEAnem95D1KL/vC+eYiKkIV
RhyMj0dM6cVXlR9mcJMi8JTDu7Vb76RvyMeJlXW6DDa/TmupNUcIQ54pauLD+wO3
H7bhUWvtexnH+c473GXpZseDlMTRTu7tZEuB8RrqWmQYG2pOk9ATbJBgytJOtyQW
+LIIWJ2NpzNFFTSBrS0tnGDv+SuY/nnTjSxI2xKR9C76v/UmwYIFgN1MqHC/p7wQ
NHc520cED+1EsmVGIiCIWSgPxwyitJGloqrKBZ+Km26jy9Sk6CR1nSCBIltfdz7J
8R6u64ozjCdbHr5tIRtCcpXjnhMDdadY1L5oEv5jjksRejTno2vdc64+GZrskYtz
rwIDAQABo2MwYTAPBgNVHRMBAf8EBTADAQH/MB0GA1UdDgQWBBQXXEXz0KwcEEyL
Q0QgxN2TxcUZOzAOBgNVHQ8BAf8EBAMCAQYwHwYDVR0jBBgwFoAUmyYLipipux25
HxzjGkAz7Y4XiKswDQYJKoZIhvcNAQELBQADggEBAKpjq4tlvAT3P/9U4WrM9ai7
AlbPZ1jsqem8ei0khTQ7SRGQlemVPyHHwdxp9fMHhf+UnFSArGOcoJ8pBIgvV3jV
6Wesegc0wLvkO5zrtDFFWBdlCGFF8SAxEcQbMslQzmJ9+SlG3lksYoOc0Q+VLOHi
d8zNMhzkMj+lhYgYSPRk77iyIHppWy8QozWxb/kT4lol0i3+1wCb9lSd/4VWOYR9
vkBuvC4i/lBsEkqF41AxSiZ1/QM/FaPQJ+/D6TXpCz+sTUBtcRLpy+Og7wrJ2cra
edg0XWKK9lp6d7V0cBWvDQCR49rHA+7XfkqNDB05FM7niUN3Op3reMzHzVYZYiI=
-----END CERTIFICATE-----
