Certificate:
    Data:
        Version: 3 (0x2)
        Serial Number:
            4a:17:34:f6:72:17:00:68:b7:81:7b:40:67:1b:ce:6b:78:04:ee:df
        Signature Algorithm: sha256WithRSAEncryption
        Issuer: C=US, ST=California, L=Mountain View, O=Test CA, CN=127.0.0.1
        Validity
            Not Before: Nov 15 00:47:41 2025 GMT
            Not After : Nov 13 00:47:41 2035 GMT
        Subject: C=US, ST=California, L=Mountain View, O=Test CA, CN=127.0.0.1
        Subject Public Key Info:
            Public Key Algorithm: rsaEncryption
                Public-Key: (2048 bit)
                Modulus:
                    00:c3:b2:5c:a7:35:1c:5e:57:a9:47:c2:66:91:31:
                    11:f8:2c:1a:4f:99:36:0c:73:81:26:8d:28:2f:dd:
                    d8:44:3f:44:de:e4:87:dc:07:12:96:5d:e4:6f:b0:
                    f2:b3:88:d7:06:cf:22:2a:e5:98:73:53:41:4e:4a:
                    c9:df:39:4a:62:1c:2b:19:91:01:35:f9:cc:b5:16:
                    e7:a9:a8:b7:ff:6b:e1:59:53:8e:e3:e3:b5:01:bf:
                    a2:58:f1:2f:dd:01:73:03:d3:6c:40:f3:8f:b1:b5:
                    2d:a1:d2:d0:59:a8:c0:2d:56:54:18:41:e8:66:1c:
                    f9:f2:28:4a:c4:03:c3:00:c5:5f:13:96:9e:4e:6f:
                    03:25:e9:8c:cc:32:6d:c8:a1:d9:7c:95:be:5b:ea:
                    99:b8:ea:b1:64:78:46:42:4c:7f:a0:70:3b:8c:63:
                    7e:52:f5:5f:60:a5:ad:c6:43:51:de:d5:ab:67:90:
                    cf:82:79:57:3d:f3:7a:b8:cf:6b:d0:0e:24:07:b4:
                    70:37:66:32:21:3e:20:7a:2b:41:07:17:6b:1d:fd:
                    d0:ef:b7:4f:5e:3c:a9:f9:cd:2a:b1:5e:14:91:7b:
                    7a:00:40:48:4c:1e:00:9c:23:ef:a5:b9:71:45:66:
                    ce:ec:ff:86:83:de:08:5c:44:74:a8:da:54:f7:05:
                    d8:61
                Exponent: 65537 (0x10001)
        X509v3 extensions:
            X509v3 Certificate Policies: 
                Policy: 1.2.3.4.5
                Policy: 1.3.5.8.12
                  CPS: http://cps.example.com/foo
                  User Notice:
                    Organization: Organization Name
                    Numbers: 1, 2, 3, 4
                    Explicit Text: Explicit Text Here
                  User Notice:
                    Explicit Text: Explicit Text Two
                  User Notice:
                    Organization: Organization Name Two
                    Number: 42
            X509v3 Subject Key Identifier: 
                1C:4D:03:59:C5:03:74:19:DB:1D:15:37:EB:D4:2C:A6:C5:CE:C3:24
    Signature Algorithm: sha256WithRSAEncryption
    Signature Value:
        70:9e:a1:33:6e:95:a1:ab:72:b4:7e:8d:8f:a7:ca:d9:44:25:
        c5:23:d1:9d:ca:51:7c:da:71:02:3f:62:0c:65:35:71:1f:95:
        e3:55:5f:4e:59:b9:c1:ee:2a:29:0f:bc:d9:94:9c:76:cc:32:
        e5:44:7d:08:b9:7e:a0:23:ea:a7:21:ab:6d:d5:22:29:bc:a8:
        14:e8:20:8b:ad:10:a1:44:69:5e:dc:ae:dc:8a:44:bb:b6:57:
        fb:10:3b:b9:25:c6:a6:29:3c:d8:66:5a:9c:8b:11:2b:4e:99:
        da:ef:46:e0:c5:94:31:c7:e7:7f:30:c0:c1:d3:ea:b3:70:39:
        04:fd:9d:48:36:9c:de:9d:5a:90:44:9c:24:5d:4c:7b:59:ad:
        98:6f:d5:99:e1:27:d6:e8:cb:bb:70:35:c5:f3:15:57:6f:b7:
        1c:4f:ff:bc:cf:c3:44:b6:79:9d:82:98:db:a2:5e:c7:ea:ca:
        46:5d:91:ca:9e:5b:f7:fa:07:87:72:70:cf:45:05:95:5b:fb:
        0a:8a:80:5e:84:68:f8:be:d9:3a:2c:1e:87:4e:ea:6a:7a:ee:
        1f:16:40:8e:83:78:48:e4:71:4a:07:3f:be:ac:46:19:7f:56:
        27:72:6b:01:29:e7:ca:af:12:8d:6c:4d:41:ea:fc:97:31:ff:
        9d:b6:00:e6
-----BEGIN CERTIFICATE-----
MIIETTCCAzWgAwIBAgIUShc09nIXAGi3gXtAZxvOa3gE7t8wDQYJKoZIhvcNAQEL
BQAwYDELMAkGA1UEBhMCVVMxEzARBgNVBAgMCkNhbGlmb3JuaWExFjAUBgNVBAcM
DU1vdW50YWluIFZpZXcxEDAOBgNVBAoMB1Rlc3QgQ0ExEjAQBgNVBAMMCTEyNy4w
LjAuMTAeFw0yNTExMTUwMDQ3NDFaFw0zNTExMTMwMDQ3NDFaMGAxCzAJBgNVBAYT
AlVTMRMwEQYDVQQIDApDYWxpZm9ybmlhMRYwFAYDVQQHDA1Nb3VudGFpbiBWaWV3
MRAwDgYDVQQKDAdUZXN0IENBMRIwEAYDVQQDDAkxMjcuMC4wLjEwggEiMA0GCSqG
SIb3DQEBAQUAA4IBDwAwggEKAoIBAQDDslynNRxeV6lHwmaRMRH4LBpPmTYMc4Em
jSgv3dhEP0Te5IfcBxKWXeRvsPKziNcGzyIq5ZhzU0FOSsnfOUpiHCsZkQE1+cy1
FuepqLf/a+FZU47j47UBv6JY8S/dAXMD02xA84+xtS2h0tBZqMAtVlQYQehmHPny
KErEA8MAxV8Tlp5ObwMl6YzMMm3Iodl8lb5b6pm46rFkeEZCTH+gcDuMY35S9V9g
pa3GQ1He1atnkM+CeVc983q4z2vQDiQHtHA3ZjIhPiB6K0EHF2sd/dDvt09ePKn5
zSqxXhSRe3oAQEhMHgCcI++luXFFZs7s/4aD3ghcRHSo2lT3BdhhAgMBAAGjgf4w
gfswgdkGA1UdIASB0TCBzjAGBgQqAwQFMIHDBgQrBQgMMIG6MCYGCCsGAQUFBwIB
FhpodHRwOi8vY3BzLmV4YW1wbGUuY29tL2ZvbzBDBggrBgEFBQcCAjA3MCEaEU9y
Z2FuaXphdGlvbiBOYW1lMAwCAQECAQICAQMCAQQaEkV4cGxpY2l0IFRleHQgSGVy
ZTAfBggrBgEFBQcCAjATGhFFeHBsaWNpdCBUZXh0IFR3bzAqBggrBgEFBQcCAjAe
MBwaFU9yZ2FuaXphdGlvbiBOYW1lIFR3bzADAgEqMB0GA1UdDgQWBBQcTQNZxQN0
GdsdFTfr1Cymxc7DJDANBgkqhkiG9w0BAQsFAAOCAQEAcJ6hM26VoatytH6Nj6fK
2UQlxSPRncpRfNpxAj9iDGU1cR+V41VfTlm5we4qKQ+82ZScdswy5UR9CLl+oCPq
pyGrbdUiKbyoFOggi60QoURpXtyu3IpEu7ZX+xA7uSXGpik82GZanIsRK06Z2u9G
4MWUMcfnfzDAwdPqs3A5BP2dSDac3p1akEScJF1Me1mtmG/VmeEn1ujLu3A1xfMV
V2+3HE//vM/DRLZ5nYKY26Jex+rKRl2Ryp5b9/oHh3Jwz0UFlVv7CoqAXoRo+L7Z
Oiweh07qanruHxZAjoN4SORxSgc/vqxGGX9WJ3JrASnnyq8SjWxNQer8lzH/nbYA
5g==
-----END CERTIFICATE-----
