Certificate:
    Data:
        Version: 3 (0x2)
        Serial Number:
            14:c8:c7:f1:f1:6b:91:0b:18:45:4b:c0:65:f2:fc:21
        Signature Algorithm: sha256WithRSAEncryption
        Issuer: C=US, ST=California, L=Mountain View, O=Test CA, CN=Test Root CA
        Validity
            Not Before: Jun  1 00:00:00 2016 GMT
            Not After : Jul  3 00:00:00 2017 GMT
        Subject: C=US, ST=California, L=Mountain View, O=Test CA, CN=127.0.0.1
        Subject Public Key Info:
            Public Key Algorithm: rsaEncryption
                Public-Key: (2048 bit)
                Modulus:
                    00:a1:de:b3:9e:08:92:5f:be:5c:83:d0:2e:6c:7e:
                    c8:49:2d:89:f1:e7:2a:dd:19:e2:d3:0c:0f:20:18:
                    d2:d8:f2:e0:b0:65:1c:02:cc:d3:8b:a5:65:44:3c:
                    da:04:c0:8b:e6:9a:cc:b0:21:03:61:8c:0f:d7:76:
                    48:84:70:45:09:5a:88:19:c2:75:16:0e:ed:d0:78:
                    1d:70:eb:8f:b7:71:24:84:0b:d7:a6:62:60:66:5f:
                    66:a2:7f:ef:c4:2c:9a:08:c1:4b:0c:e9:2e:52:dc:
                    76:39:13:d5:7f:fb:18:91:b0:6c:04:8f:8b:c9:08:
                    cb:20:66:ae:d9:a5:45:55:24:b0:94:f3:32:82:de:
                    a8:58:05:fc:bf:f0:bd:50:c7:52:85:20:61:63:4c:
                    2a:61:f1:9f:44:be:a5:02:97:f0:b2:20:6b:33:32:
                    b6:3f:ac:87:82:b2:00:cc:71:a8:dd:ed:b5:7b:b3:
                    05:17:08:b1:b8:1e:6f:82:a2:d7:2a:f7:d2:76:f4:
                    4b:2a:1e:aa:bb:d4:b3:65:c0:7f:ab:0c:9b:01:f0:
                    fb:4f:90:8a:93:87:2a:e6:e1:d8:0c:b4:05:8b:ef:
                    cb:23:1a:2a:4d:2d:56:93:06:70:9e:ad:dd:c9:8a:
                    41:02:e4:71:61:47:23:ba:49:90:4a:e2:ba:d2:6b:
                    9f:89
                Exponent: 65537 (0x10001)
        X509v3 extensions:
            X509v3 Basic Constraints: critical
                CA:FALSE
            X509v3 Subject Key Identifier: 
                1E:78:D1:13:54:41:D6:EE:11:DE:DF:07:90:8C:F8:2F:5B:05:7C:A6
            X509v3 Authority Key Identifier: 
                9B:26:0B:8A:98:A9:BB:1D:B9:1F:1C:E3:1A:40:33:ED:8E:17:88:AB
            X509v3 Extended Key Usage: 
                TLS Web Server Authentication, TLS Web Client Authentication
            X509v3 Subject Alternative Name: 
                IP Address:127.0.0.1
    Signature Algorithm: sha256WithRSAEncryption
    Signature Value:
        82:fd:b9:bc:86:d1:b0:19:93:34:1b:8c:e1:de:f8:d5:1a:0a:
        db:70:43:14:ef:5f:e4:3c:c9:07:17:02:a1:b0:0b:88:c3:f6:
        5a:b9:11:5e:07:d4:2a:4b:21:98:13:7e:0b:84:e1:a2:9d:a8:
        f3:c2:19:1b:ee:69:bd:c2:ab:59:2e:a9:30:5b:5e:04:2e:33:
        f7:81:9c:90:df:54:4a:6d:27:ca:39:5d:ee:13:27:4a:9d:38:
        9a:dc:d4:8f:b6:39:1a:e2:28:d9:bb:8a:0b:ff:4e:5b:b4:43:
        be:6c:0a:ca:b7:ef:cb:e9:bf:54:b3:ce:e0:74:7a:ab:d2:4e:
        2d:03:8f:bf:b4:7b:88:6c:be:2d:e7:24:5b:6f:73:45:3a:56:
        69:79:11:46:77:80:4b:78:82:5d:f8:5a:45:98:d6:73:43:4a:
        f0:31:20:e5:9b:e9:8d:da:5a:8c:e5:e4:7f:ca:86:f1:af:ba:
        33:0e:86:f9:88:9f:5e:c2:3e:01:eb:b4:95:00:7b:4b:e9:27:
        4e:15:94:f4:5c:57:0d:0d:72:a8:48:3c:7f:fe:c0:6d:3d:fb:
        8c:b0:21:e0:b3:8d:1d:a4:ae:ea:f1:58:0a:bd:2f:05:77:56:
        39:c5:e0:a3:2c:07:c0:7f:4f:96:ab:58:df:e8:13:ef:a2:b9:
        5e:e1:43:38
-----BEGIN CERTIFICATE-----
MIIDzjCCAragAwIBAgIQFMjH8fFrkQsYRUvAZfL8ITANBgkqhkiG9w0BAQsFADBj
MQswCQYDVQQGEwJVUzETMBEGA1UECAwKQ2FsaWZvcm5pYTEWMBQGA1UEBwwNTW91
bnRhaW4gVmlldzEQMA4GA1UECgwHVGVzdCBDQTEVMBMGA1UEAwwMVGVzdCBSb290
IENBMB4XDTE2MDYwMTAwMDAwMFoXDTE3MDcwMzAwMDAwMFowYDELMAkGA1UEBhMC
VVMxEzARBgNVBAgMCkNhbGlmb3JuaWExFjAUBgNVBAcMDU1vdW50YWluIFZpZXcx
EDAOBgNVBAoMB1Rlc3QgQ0ExEjAQBgNVBAMMCTEyNy4wLjAuMTCCASIwDQYJKoZI
hvcNAQEBBQADggEPADCCAQoCggEBAKHes54Ikl++XIPQLmx+yEktifHnKt0Z4tMM
DyAY0tjy4LBlHALM04ulZUQ82gTAi+aazLAhA2GMD9d2SIRwRQlaiBnCdRYO7dB4
HXDrj7dxJIQL16ZiYGZfZqJ/78QsmgjBSwzpLlLcdjkT1X/7GJGwbASPi8kIyyBm
rtmlRVUksJTzMoLeqFgF/L/wvVDHUoUgYWNMKmHxn0S+pQKX8LIgazMytj+sh4Ky
AMxxqN3ttXuzBRcIsbgeb4Ki1yr30nb0SyoeqrvUs2XAf6sMmwHw+0+QipOHKubh
2Ay0BYvvyyMaKk0tVpMGcJ6t3cmKQQLkcWFHI7pJkEriutJrn4kCAwEAAaOBgDB+
MAwGA1UdEwEB/wQCMAAwHQYDVR0OBBYEFB540RNUQdbuEd7fB5CM+C9bBXymMB8G
A1UdIwQYMBaAFJsmC4qYqbsduR8c4xpAM+2OF4irMB0GA1UdJQQWMBQGCCsGAQUF
BwMBBggrBgEFBQcDAjAPBgNVHREECDAGhwR/AAABMA0GCSqGSIb3DQEBCwUAA4IB
AQCC/bm8htGwGZM0G4zh3vjVGgrbcEMU71/kPMkHFwKhsAuIw/ZauRFeB9QqSyGY
E34LhOGinajzwhkb7mm9wqtZLqkwW14ELjP3gZyQ31RKbSfKOV3uEydKnTia3NSP
tjka4ijZu4oL/05btEO+bArKt+/L6b9Us87gdHqr0k4tA4+/tHuIbL4t5yRbb3NF
OlZpeRFGd4BLeIJd+FpFmNZzQ0rwMSDlm+mN2lqM5eR/yobxr7ozDob5iJ9ewj4B
67SVAHtL6SdOFZT0XFcNDXKoSDx//sBtPfuMsCHgs40dpK7q8VgKvS8Fd1Y5xeCj
LAfAf0+Wq1jf6BPvorle4UM4
-----END CERTIFICATE-----
