Certificate:
    Data:
        Version: 3 (0x2)
        Serial Number:
            14:c8:c7:f1:f1:6b:91:0b:18:45:4b:c0:65:f2:fc:1d
        Signature Algorithm: sha256WithRSAEncryption
        Issuer: C=US, ST=California, L=Mountain View, O=Test CA, CN=Test Root CA
        Validity
            Not Before: May  1 00:00:00 2016 GMT
            Not After : Jul  3 00:00:00 2017 GMT
        Subject: C=US, ST=California, L=Mountain View, O=Test CA, CN=127.0.0.1
        Subject Public Key Info:
            Public Key Algorithm: rsaEncryption
                Public-Key: (2048 bit)
                Modulus:
                    00:c1:73:eb:23:61:3c:c4:c5:13:e1:0b:40:15:e6:
                    da:15:d8:e1:38:09:8b:6d:f3:cc:93:e0:9b:36:76:
                    2b:d0:ac:46:b2:bc:c3:ae:f5:60:ba:11:d5:26:e1:
                    f5:10:b7:b3:98:64:56:ce:5b:ae:50:55:de:e0:aa:
                    66:26:f3:c3:98:1c:a5:c8:b4:0e:72:a0:87:10:3d:
                    7e:83:cc:14:d7:7b:2f:2e:84:b9:d8:af:09:83:b4:
                    0b:d6:58:d7:0f:ee:66:e7:4a:44:f9:10:5a:d1:10:
                    75:2f:67:ec:cf:d4:95:d9:5e:33:a5:e6:a6:dc:aa:
                    af:28:e3:e1:eb:1a:43:d7:78:b2:b6:4c:03:dd:fd:
                    52:ff:eb:f7:64:66:94:25:ac:23:18:90:b9:08:3b:
                    11:37:bd:a3:9b:de:db:54:f1:74:8e:31:ca:5d:63:
                    95:f9:2e:94:50:42:65:4f:0c:ed:6b:ac:2c:d6:5e:
                    59:6d:e0:da:89:94:cd:33:20:d4:99:63:00:1e:d2:
                    dc:19:ff:6a:ba:2c:65:cf:bc:da:b1:14:77:4f:7f:
                    09:e3:5f:37:16:2e:6e:76:0b:03:32:39:36:c1:b2:
                    21:c2:4a:ec:50:09:e8:37:00:b0:5d:1b:f8:c8:84:
                    e0:cd:23:2f:39:95:5b:e1:06:0d:ba:96:ef:93:60:
                    6e:61
                Exponent: 65537 (0x10001)
        X509v3 extensions:
            X509v3 Basic Constraints: critical
                CA:FALSE
            X509v3 Subject Key Identifier: 
                7B:80:3D:41:84:01:01:5E:BF:28:EC:CD:AC:C2:07:1F:C8:CF:E1:80
            X509v3 Authority Key Identifier: 
                9B:26:0B:8A:98:A9:BB:1D:B9:1F:1C:E3:1A:40:33:ED:8E:17:88:AB
            X509v3 Extended Key Usage: 
                TLS Web Server Authentication, TLS Web Client Authentication
            X509v3 Subject Alternative Name: 
                IP Address:127.0.0.1
    Signature Algorithm: sha256WithRSAEncryption
    Signature Value:
        b6:e1:a1:d4:38:bf:ca:24:9c:b8:37:88:df:cb:b8:f6:1a:03:
        39:ee:d9:8e:40:3c:9c:8c:86:11:75:cd:d3:c3:8e:72:2a:5e:
        ed:02:0d:15:42:ac:50:32:6a:ee:3e:c7:b8:4c:07:2c:83:4c:
        35:8f:4b:7f:11:cc:3c:a8:c4:d8:98:78:5b:37:4d:6d:b7:13:
        9f:5e:47:ad:33:1b:7d:0a:1f:c7:ff:30:2e:b3:0d:ae:37:32:
        70:17:ff:cb:e4:4d:a1:6e:d9:2f:84:f7:13:35:c4:ac:da:87:
        2a:60:d1:58:24:6c:af:b7:09:9d:61:fd:81:0e:7e:a5:f5:db:
        41:f2:6c:d6:b4:14:94:bb:c9:ba:5d:62:bc:f3:4e:f7:65:16:
        ba:11:02:dc:97:ae:70:aa:90:ee:92:90:1f:2d:48:ef:78:9c:
        98:a0:79:33:3b:6d:51:d6:79:04:f0:e4:4d:ec:a9:ca:99:77:
        77:42:51:ea:ce:1d:6e:b2:ff:7d:d1:43:b1:07:da:fd:a3:64:
        61:73:b3:cb:ef:99:d1:e7:5c:f1:b8:b6:42:47:a8:22:90:17:
        1c:fd:77:81:b7:a6:ce:0e:af:35:79:b2:88:2c:21:e4:05:39:
        8f:12:bf:3b:67:1b:54:58:4a:b5:4b:2a:1b:19:95:2f:81:08:
        0b:00:50:50
-----BEGIN CERTIFICATE-----
MIIDzjCCAragAwIBAgIQFMjH8fFrkQsYRUvAZfL8HTANBgkqhkiG9w0BAQsFADBj
MQswCQYDVQQGEwJVUzETMBEGA1UECAwKQ2FsaWZvcm5pYTEWMBQGA1UEBwwNTW91
bnRhaW4gVmlldzEQMA4GA1UECgwHVGVzdCBDQTEVMBMGA1UEAwwMVGVzdCBSb290
IENBMB4XDTE2MDUwMTAwMDAwMFoXDTE3MDcwMzAwMDAwMFowYDELMAkGA1UEBhMC
VVMxEzARBgNVBAgMCkNhbGlmb3JuaWExFjAUBgNVBAcMDU1vdW50YWluIFZpZXcx
EDAOBgNVBAoMB1Rlc3QgQ0ExEjAQBgNVBAMMCTEyNy4wLjAuMTCCASIwDQYJKoZI
hvcNAQEBBQADggEPADCCAQoCggEBAMFz6yNhPMTFE+ELQBXm2hXY4TgJi23zzJPg
mzZ2K9CsRrK8w671YLoR1Sbh9RC3s5hkVs5brlBV3uCqZibzw5gcpci0DnKghxA9
foPMFNd7Ly6EudivCYO0C9ZY1w/uZudKRPkQWtEQdS9n7M/UldleM6Xmptyqryjj
4esaQ9d4srZMA939Uv/r92RmlCWsIxiQuQg7ETe9o5ve21TxdI4xyl1jlfkulFBC
ZU8M7WusLNZeWW3g2omUzTMg1JljAB7S3Bn/arosZc+82rEUd09/CeNfNxYubnYL
AzI5NsGyIcJK7FAJ6DcAsF0b+MiE4M0jLzmVW+EGDbqW75NgbmECAwEAAaOBgDB+
MAwGA1UdEwEB/wQCMAAwHQYDVR0OBBYEFHuAPUGEAQFevyjszazCBx/Iz+GAMB8G
A1UdIwQYMBaAFJsmC4qYqbsduR8c4xpAM+2OF4irMB0GA1UdJQQWMBQGCCsGAQUF
BwMBBggrBgEFBQcDAjAPBgNVHREECDAGhwR/AAABMA0GCSqGSIb3DQEBCwUAA4IB
AQC24aHUOL/KJJy4N4jfy7j2GgM57tmOQDycjIYRdc3Tw45yKl7tAg0VQqxQMmru
Pse4TAcsg0w1j0t/Ecw8qMTYmHhbN01ttxOfXketMxt9Ch/H/zAusw2uNzJwF//L
5E2hbtkvhPcTNcSs2ocqYNFYJGyvtwmdYf2BDn6l9dtB8mzWtBSUu8m6XWK88073
ZRa6EQLcl65wqpDukpAfLUjveJyYoHkzO21R1nkE8ORN7KnKmXd3QlHqzh1usv99
0UOxB9r9o2Rhc7PL75nR51zxuLZCR6gikBcc/XeBt6bODq81ebKILCHkBTmPEr87
ZxtUWEq1SyobGZUvgQgLAFBQ
-----END CERTIFICATE-----
