Certificate:
    Data:
        Version: 3 (0x2)
        Serial Number:
            14:c8:c7:f1:f1:6b:91:0b:18:45:4b:c0:65:f2:fc:18
        Signature Algorithm: sha256WithRSAEncryption
        Issuer: C=US, ST=California, L=Mountain View, O=Test CA, CN=Test Root CA
        Validity
            Not Before: Jan  1 00:00:00 2008 GMT
            Not After : May  1 00:00:00 2018 GMT
        Subject: C=US, ST=California, L=Mountain View, O=Test CA, CN=127.0.0.1
        Subject Public Key Info:
            Public Key Algorithm: rsaEncryption
                Public-Key: (2048 bit)
                Modulus:
                    00:aa:d1:9d:0b:13:b7:d4:2c:2d:6e:0c:e1:3f:90:
                    00:a5:3a:2c:98:6f:69:30:67:2c:1b:2d:7a:bc:a6:
                    e6:23:aa:b4:ad:8e:22:7a:0c:11:d2:77:61:59:6f:
                    e1:74:d8:a1:2c:1a:3e:ab:d6:44:23:8f:7c:d1:f6:
                    99:e0:c7:eb:bb:07:7b:6a:0a:a9:27:8b:58:60:e1:
                    64:27:16:0c:92:85:64:3e:f1:2a:b2:76:ad:9a:62:
                    86:1e:b8:44:73:e3:4d:c0:3f:61:47:7c:2c:1c:a2:
                    dc:cf:61:ec:72:e5:40:55:b1:d7:03:c6:d0:1d:36:
                    10:09:e2:66:7d:a6:b4:ce:22:ad:3a:61:23:73:57:
                    2a:6c:08:60:2f:1c:01:5d:61:9a:25:3d:04:88:5e:
                    23:bd:ab:10:36:5f:09:8f:80:43:8d:fb:97:fa:55:
                    8e:97:a9:e9:7b:c2:0b:f8:ec:62:46:2c:4a:db:3c:
                    11:a3:ca:ee:c2:e9:29:63:6d:24:68:a8:d5:9a:3e:
                    23:4c:a7:e5:55:7b:17:7a:ce:e5:b2:e0:d2:ce:d2:
                    0b:e4:ad:25:4a:44:bd:b2:40:04:31:fc:5f:51:c0:
                    9f:57:1c:fb:e9:03:a7:0b:30:48:c7:8f:fa:94:a8:
                    39:2f:f6:10:d8:8d:44:a3:4f:c5:bc:d2:24:4c:6e:
                    fb:11
                Exponent: 65537 (0x10001)
        X509v3 extensions:
            X509v3 Basic Constraints: critical
                CA:FALSE
            X509v3 Subject Key Identifier: 
                06:4C:25:5A:1E:CF:64:0F:35:09:3F:C1:02:C0:A4:FA:03:D3:B7:1E
            X509v3 Authority Key Identifier: 
                9B:26:0B:8A:98:A9:BB:1D:B9:1F:1C:E3:1A:40:33:ED:8E:17:88:AB
            X509v3 Extended Key Usage: 
                TLS Web Server Authentication, TLS Web Client Authentication
            X509v3 Subject Alternative Name: 
                IP Address:127.0.0.1
    Signature Algorithm: sha256WithRSAEncryption
    Signature Value:
        3f:be:02:d8:14:81:e9:da:29:08:43:46:31:d2:6e:8e:67:c5:
        23:8f:53:d3:f7:01:1e:8c:bc:77:a5:35:a9:c1:e2:9b:b4:26:
        87:e7:cf:0f:92:83:0b:2d:23:58:09:3a:f7:48:62:4f:4d:08:
        b2:7a:d7:a4:23:9f:ad:8b:e8:d1:ca:4f:5f:42:9a:4c:fb:48:
        e4:dd:94:b6:b5:e7:d1:70:19:05:72:77:32:1d:a7:77:48:a7:
        e4:16:3e:8b:87:8d:d7:68:23:84:68:e0:58:8f:26:e4:0b:79:
        ef:4f:61:cb:4c:8a:cf:82:68:7c:4b:48:75:a6:cb:80:9e:e9:
        f0:17:79:8d:b7:f0:25:67:0d:d6:01:24:fd:a7:6f:37:ad:52:
        43:9a:99:a3:3b:64:3d:91:cf:3b:f1:31:02:f5:73:74:78:05:
        67:fd:ae:17:cc:52:42:52:fc:7a:0d:da:c4:c0:b0:b4:fe:30:
        51:de:dd:13:26:a9:ae:8f:71:5d:58:ca:55:d6:2a:f1:dd:8d:
        f9:f8:39:f2:7a:6e:ae:96:fd:14:41:4e:0d:87:0a:3e:80:32:
        03:7a:d7:1e:8b:eb:f8:3c:fb:e4:ac:71:4c:b9:a2:45:e5:51:
        0c:5c:79:eb:a3:c8:5e:56:ab:2c:54:fd:70:a9:e7:dc:0d:fc:
        68:35:ee:71
-----BEGIN CERTIFICATE-----
MIIDzjCCAragAwIBAgIQFMjH8fFrkQsYRUvAZfL8GDANBgkqhkiG9w0BAQsFADBj
MQswCQYDVQQGEwJVUzETMBEGA1UECAwKQ2FsaWZvcm5pYTEWMBQGA1UEBwwNTW91
bnRhaW4gVmlldzEQMA4GA1UECgwHVGVzdCBDQTEVMBMGA1UEAwwMVGVzdCBSb290
IENBMB4XDTA4MDEwMTAwMDAwMFoXDTE4MDUwMTAwMDAwMFowYDELMAkGA1UEBhMC
VVMxEzARBgNVBAgMCkNhbGlmb3JuaWExFjAUBgNVBAcMDU1vdW50YWluIFZpZXcx
EDAOBgNVBAoMB1Rlc3QgQ0ExEjAQBgNVBAMMCTEyNy4wLjAuMTCCASIwDQYJKoZI
hvcNAQEBBQADggEPADCCAQoCggEBAKrRnQsTt9QsLW4M4T+QAKU6LJhvaTBnLBst
erym5iOqtK2OInoMEdJ3YVlv4XTYoSwaPqvWRCOPfNH2meDH67sHe2oKqSeLWGDh
ZCcWDJKFZD7xKrJ2rZpihh64RHPjTcA/YUd8LByi3M9h7HLlQFWx1wPG0B02EAni
Zn2mtM4irTphI3NXKmwIYC8cAV1hmiU9BIheI72rEDZfCY+AQ437l/pVjpep6XvC
C/jsYkYsSts8EaPK7sLpKWNtJGio1Zo+I0yn5VV7F3rO5bLg0s7SC+StJUpEvbJA
BDH8X1HAn1cc++kDpwswSMeP+pSoOS/2ENiNRKNPxbzSJExu+xECAwEAAaOBgDB+
MAwGA1UdEwEB/wQCMAAwHQYDVR0OBBYEFAZMJVoez2QPNQk/wQLApPoD07ceMB8G
A1UdIwQYMBaAFJsmC4qYqbsduR8c4xpAM+2OF4irMB0GA1UdJQQWMBQGCCsGAQUF
BwMBBggrBgEFBQcDAjAPBgNVHREECDAGhwR/AAABMA0GCSqGSIb3DQEBCwUAA4IB
AQA/vgLYFIHp2ikIQ0Yx0m6OZ8Ujj1PT9wEejLx3pTWpweKbtCaH588PkoMLLSNY
CTr3SGJPTQiyetekI5+ti+jRyk9fQppM+0jk3ZS2tefRcBkFcncyHad3SKfkFj6L
h43XaCOEaOBYjybkC3nvT2HLTIrPgmh8S0h1psuAnunwF3mNt/AlZw3WAST9p283
rVJDmpmjO2Q9kc878TEC9XN0eAVn/a4XzFJCUvx6DdrEwLC0/jBR3t0TJqmuj3Fd
WMpV1irx3Y35+Dnyem6ulv0UQU4Nhwo+gDIDetcei+v4PPvkrHFMuaJF5VEMXHnr
o8heVqssVP1wqefcDfxoNe5x
-----END CERTIFICATE-----
