Certificate:
    Data:
        Version: 3 (0x2)
        Serial Number:
            14:c8:c7:f1:f1:6b:91:0b:18:45:4b:c0:65:f2:fc:19
        Signature Algorithm: sha256WithRSAEncryption
        Issuer: C=US, ST=California, L=Mountain View, O=Test CA, CN=Test Root CA
        Validity
            Not Before: May  1 00:00:00 2012 GMT
            Not After : Jul  3 00:00:00 2019 GMT
        Subject: C=US, ST=California, L=Mountain View, O=Test CA, CN=127.0.0.1
        Subject Public Key Info:
            Public Key Algorithm: rsaEncryption
                Public-Key: (2048 bit)
                Modulus:
                    00:ab:4d:fa:5a:ee:8f:2d:19:eb:11:60:6f:dc:f5:
                    f7:12:59:ef:aa:17:23:63:4b:07:25:60:e5:a6:64:
                    ae:e8:ed:d4:29:7f:7d:48:4b:1b:cb:41:97:63:1c:
                    4b:b0:8f:62:e4:4c:d8:2e:0d:3d:50:1f:13:fa:89:
                    6e:f7:d6:e8:bc:07:4f:7d:00:9e:f5:7d:5d:f1:93:
                    7a:11:05:34:77:e9:80:ed:06:fb:1c:c3:94:74:ff:
                    ef:67:60:4b:f5:5e:f4:2d:ae:6c:99:33:7f:f4:4f:
                    7f:c8:90:eb:9a:9c:c6:41:38:df:a3:3f:4b:f5:fe:
                    12:8e:3a:fe:d7:5c:28:c3:ff:6e:c4:29:b5:72:d6:
                    0d:0a:b6:dd:7f:f5:8e:75:55:77:90:81:ec:71:dd:
                    58:c6:d2:ce:b8:ed:76:14:c4:c5:fd:0b:ae:04:f6:
                    e5:74:db:4a:45:25:fe:a3:58:d2:3a:95:17:22:37:
                    56:dd:a2:f1:44:dc:f1:d5:0c:46:89:de:e5:9f:dc:
                    f5:9b:b9:43:92:50:bf:ee:bd:4a:95:d0:ce:7b:ec:
                    1c:2a:6b:ba:05:4a:78:6e:d6:97:fc:2c:c2:fc:00:
                    bb:ae:b2:03:65:4f:5d:d8:af:81:7e:26:84:f9:00:
                    8e:0d:67:a8:42:b0:13:76:4d:ae:92:d1:6e:97:52:
                    95:a7
                Exponent: 65537 (0x10001)
        X509v3 extensions:
            X509v3 Basic Constraints: critical
                CA:FALSE
            X509v3 Subject Key Identifier: 
                B9:58:F9:96:00:AB:75:8C:0F:CD:08:58:B0:CA:08:CA:AB:E9:CE:3E
            X509v3 Authority Key Identifier: 
                9B:26:0B:8A:98:A9:BB:1D:B9:1F:1C:E3:1A:40:33:ED:8E:17:88:AB
            X509v3 Extended Key Usage: 
                TLS Web Server Authentication, TLS Web Client Authentication
            X509v3 Subject Alternative Name: 
                IP Address:127.0.0.1
    Signature Algorithm: sha256WithRSAEncryption
    Signature Value:
        0a:e6:44:70:18:d8:75:23:4c:93:85:0e:46:ae:6a:da:1e:b3:
        0e:89:93:9b:68:eb:e4:8f:30:79:7d:88:d6:17:56:45:57:9b:
        d7:4c:8a:f4:60:1e:37:cc:e8:b0:65:80:a3:5f:79:f4:e0:56:
        fe:c5:99:be:50:76:65:a6:b4:f0:a7:96:af:86:30:e0:da:16:
        77:5d:d4:5c:c8:b1:10:62:ea:a6:00:41:79:a3:61:8e:ed:d6:
        fa:14:35:82:f4:fd:5f:cb:24:8a:fa:af:26:5f:44:1c:9c:af:
        c2:9a:a3:2a:ec:30:b4:3a:b6:3e:ed:96:1f:db:cc:92:bc:37:
        11:a6:07:34:b3:9a:9e:7b:f5:dd:ea:4a:97:60:f7:ee:23:e8:
        96:82:32:ed:fd:7c:c9:e8:55:8e:3b:68:da:9d:0d:e7:52:c8:
        bd:d6:e7:83:3c:da:8c:fe:98:a6:1d:59:15:09:9f:ae:28:e0:
        d6:8a:e7:ce:c8:00:02:08:03:34:bd:99:ed:45:11:31:9b:38:
        3a:c2:cc:2d:49:4b:5f:b9:9c:ec:bf:0c:2a:75:15:2f:21:b5:
        b2:9c:6b:4e:1c:23:c1:8a:e1:dc:1e:36:ac:90:bb:4e:22:0b:
        43:61:12:4f:7f:17:9e:3e:31:11:c9:8a:5f:47:f8:50:02:34:
        58:89:c1:ea
-----BEGIN CERTIFICATE-----
MIIDzjCCAragAwIBAgIQFMjH8fFrkQsYRUvAZfL8GTANBgkqhkiG9w0BAQsFADBj
MQswCQYDVQQGEwJVUzETMBEGA1UECAwKQ2FsaWZvcm5pYTEWMBQGA1UEBwwNTW91
bnRhaW4gVmlldzEQMA4GA1UECgwHVGVzdCBDQTEVMBMGA1UEAwwMVGVzdCBSb290
IENBMB4XDTEyMDUwMTAwMDAwMFoXDTE5MDcwMzAwMDAwMFowYDELMAkGA1UEBhMC
VVMxEzARBgNVBAgMCkNhbGlmb3JuaWExFjAUBgNVBAcMDU1vdW50YWluIFZpZXcx
EDAOBgNVBAoMB1Rlc3QgQ0ExEjAQBgNVBAMMCTEyNy4wLjAuMTCCASIwDQYJKoZI
hvcNAQEBBQADggEPADCCAQoCggEBAKtN+lrujy0Z6xFgb9z19xJZ76oXI2NLByVg
5aZkrujt1Cl/fUhLG8tBl2McS7CPYuRM2C4NPVAfE/qJbvfW6LwHT30AnvV9XfGT
ehEFNHfpgO0G+xzDlHT/72dgS/Ve9C2ubJkzf/RPf8iQ65qcxkE436M/S/X+Eo46
/tdcKMP/bsQptXLWDQq23X/1jnVVd5CB7HHdWMbSzrjtdhTExf0LrgT25XTbSkUl
/qNY0jqVFyI3Vt2i8UTc8dUMRone5Z/c9Zu5Q5JQv+69SpXQznvsHCprugVKeG7W
l/wswvwAu66yA2VPXdivgX4mhPkAjg1nqEKwE3ZNrpLRbpdSlacCAwEAAaOBgDB+
MAwGA1UdEwEB/wQCMAAwHQYDVR0OBBYEFLlY+ZYAq3WMD80IWLDKCMqr6c4+MB8G
A1UdIwQYMBaAFJsmC4qYqbsduR8c4xpAM+2OF4irMB0GA1UdJQQWMBQGCCsGAQUF
BwMBBggrBgEFBQcDAjAPBgNVHREECDAGhwR/AAABMA0GCSqGSIb3DQEBCwUAA4IB
AQAK5kRwGNh1I0yThQ5GrmraHrMOiZObaOvkjzB5fYjWF1ZFV5vXTIr0YB43zOiw
ZYCjX3n04Fb+xZm+UHZlprTwp5avhjDg2hZ3XdRcyLEQYuqmAEF5o2GO7db6FDWC
9P1fyySK+q8mX0QcnK/CmqMq7DC0OrY+7ZYf28ySvDcRpgc0s5qee/Xd6kqXYPfu
I+iWgjLt/XzJ6FWOO2janQ3nUsi91ueDPNqM/pimHVkVCZ+uKODWiufOyAACCAM0
vZntRRExmzg6wswtSUtfuZzsvwwqdRUvIbWynGtOHCPBiuHcHjaskLtOIgtDYRJP
fxeePjERyYpfR/hQAjRYicHq
-----END CERTIFICATE-----
