Certificate:
    Data:
        Version: 3 (0x2)
        Serial Number:
            14:c8:c7:f1:f1:6b:91:0b:18:45:4b:c0:65:f2:fc:17
        Signature Algorithm: sha256WithRSAEncryption
        Issuer: C=US, ST=California, L=Mountain View, O=Test CA, CN=Test Root CA
        Validity
            Not Before: Jan  1 00:00:00 2008 GMT
            Not After : Jan  1 00:00:00 2015 GMT
        Subject: C=US, ST=California, L=Mountain View, O=Test CA, CN=127.0.0.1
        Subject Public Key Info:
            Public Key Algorithm: rsaEncryption
                Public-Key: (2048 bit)
                Modulus:
                    00:9e:62:df:59:0e:b3:24:41:d0:01:bb:ec:0b:f8:
                    a8:33:88:67:93:84:6a:08:12:df:01:77:25:82:e1:
                    ba:22:76:ea:33:59:7f:76:db:45:97:16:f1:89:59:
                    a9:b9:a5:9b:4b:c6:f0:e0:51:86:5c:16:c8:0c:7c:
                    37:a8:22:e4:b5:5e:91:48:85:50:56:c7:db:fd:94:
                    d8:a8:f1:c0:61:c0:46:32:7d:eb:c7:96:e8:47:d2:
                    d1:4b:8b:cb:b9:32:9f:0f:bb:c8:78:28:87:5e:2d:
                    58:c2:05:5a:82:53:ec:9d:ba:9c:bb:da:f8:1e:19:
                    6d:ca:e8:28:07:d8:9e:ab:50:32:4d:00:59:93:1b:
                    07:89:fe:33:71:a4:c6:8c:e5:13:ec:81:66:91:c5:
                    aa:dd:62:fd:6f:b0:5a:6b:87:3f:83:47:7b:a0:63:
                    9a:15:3a:4e:1f:a2:3a:7e:f0:18:6c:a1:04:bd:ea:
                    c0:cb:24:f7:42:4e:51:90:90:fe:27:64:41:f5:41:
                    c1:9e:52:d7:32:05:62:ab:7a:ee:2d:30:82:3c:18:
                    92:f3:02:94:c6:8c:4f:22:58:cc:62:78:ea:8d:67:
                    2a:e0:80:99:b5:e6:45:11:0b:50:17:c1:80:09:f8:
                    0d:b3:91:d1:18:6c:f9:c0:62:3e:2a:e8:69:a5:ea:
                    f0:93
                Exponent: 65537 (0x10001)
        X509v3 extensions:
            X509v3 Basic Constraints: critical
                CA:FALSE
            X509v3 Subject Key Identifier: 
                98:45:30:6F:AC:57:17:3E:28:FF:BE:10:62:52:EE:D1:E2:E4:58:B4
            X509v3 Authority Key Identifier: 
                9B:26:0B:8A:98:A9:BB:1D:B9:1F:1C:E3:1A:40:33:ED:8E:17:88:AB
            X509v3 Extended Key Usage: 
                TLS Web Server Authentication, TLS Web Client Authentication
            X509v3 Subject Alternative Name: 
                IP Address:127.0.0.1
    Signature Algorithm: sha256WithRSAEncryption
    Signature Value:
        95:ab:4e:b7:d6:1d:e1:6b:96:85:3a:d4:2a:c1:d5:61:98:c5:
        5b:76:0b:6e:55:94:22:32:77:0a:25:a4:53:d3:0d:48:f4:19:
        fe:a2:68:5d:bb:81:86:08:96:fc:5e:15:25:18:a7:8f:d2:4b:
        c9:2e:2d:d0:70:e7:7e:22:48:3e:54:bc:10:f0:54:0d:e2:ab:
        6b:a1:d5:98:fb:00:82:58:5f:5a:ae:8b:9c:12:c4:be:7e:7f:
        37:ac:9f:9e:a6:12:76:db:c7:01:c5:87:3d:2b:4d:49:74:73:
        98:d8:29:b8:99:bb:e5:b7:00:40:55:dc:7b:7b:4c:21:8c:a4:
        08:ba:64:06:b6:8a:8c:56:30:37:a5:59:04:9c:67:a2:9c:56:
        33:35:bb:69:c2:e3:6d:9a:27:ca:f6:04:4b:60:9d:98:1c:0f:
        de:e9:d3:78:5a:5b:72:3b:99:74:64:58:8e:0d:9f:bb:3c:7c:
        9c:fa:9d:15:30:57:99:c5:36:44:ca:f2:05:b9:92:a4:e8:63:
        f8:34:ef:65:66:05:ff:bc:cd:1b:7e:df:91:06:16:5c:03:4d:
        db:4d:4b:58:37:7a:85:93:80:71:56:54:37:1c:9e:a2:69:1f:
        17:d7:01:9b:c8:fd:5b:2a:ae:be:55:f5:44:b0:6c:2d:20:57:
        dc:04:fa:41
-----BEGIN CERTIFICATE-----
MIIDzjCCAragAwIBAgIQFMjH8fFrkQsYRUvAZfL8FzANBgkqhkiG9w0BAQsFADBj
MQswCQYDVQQGEwJVUzETMBEGA1UECAwKQ2FsaWZvcm5pYTEWMBQGA1UEBwwNTW91
bnRhaW4gVmlldzEQMA4GA1UECgwHVGVzdCBDQTEVMBMGA1UEAwwMVGVzdCBSb290
IENBMB4XDTA4MDEwMTAwMDAwMFoXDTE1MDEwMTAwMDAwMFowYDELMAkGA1UEBhMC
VVMxEzARBgNVBAgMCkNhbGlmb3JuaWExFjAUBgNVBAcMDU1vdW50YWluIFZpZXcx
EDAOBgNVBAoMB1Rlc3QgQ0ExEjAQBgNVBAMMCTEyNy4wLjAuMTCCASIwDQYJKoZI
hvcNAQEBBQADggEPADCCAQoCggEBAJ5i31kOsyRB0AG77Av4qDOIZ5OEaggS3wF3
JYLhuiJ26jNZf3bbRZcW8YlZqbmlm0vG8OBRhlwWyAx8N6gi5LVekUiFUFbH2/2U
2KjxwGHARjJ968eW6EfS0UuLy7kynw+7yHgoh14tWMIFWoJT7J26nLva+B4Zbcro
KAfYnqtQMk0AWZMbB4n+M3GkxozlE+yBZpHFqt1i/W+wWmuHP4NHe6BjmhU6Th+i
On7wGGyhBL3qwMsk90JOUZCQ/idkQfVBwZ5S1zIFYqt67i0wgjwYkvMClMaMTyJY
zGJ46o1nKuCAmbXmRRELUBfBgAn4DbOR0Rhs+cBiPiroaaXq8JMCAwEAAaOBgDB+
MAwGA1UdEwEB/wQCMAAwHQYDVR0OBBYEFJhFMG+sVxc+KP++EGJS7tHi5Fi0MB8G
A1UdIwQYMBaAFJsmC4qYqbsduR8c4xpAM+2OF4irMB0GA1UdJQQWMBQGCCsGAQUF
BwMBBggrBgEFBQcDAjAPBgNVHREECDAGhwR/AAABMA0GCSqGSIb3DQEBCwUAA4IB
AQCVq0631h3ha5aFOtQqwdVhmMVbdgtuVZQiMncKJaRT0w1I9Bn+omhdu4GGCJb8
XhUlGKeP0kvJLi3QcOd+Ikg+VLwQ8FQN4qtrodWY+wCCWF9aroucEsS+fn83rJ+e
phJ228cBxYc9K01JdHOY2Cm4mbvltwBAVdx7e0whjKQIumQGtoqMVjA3pVkEnGei
nFYzNbtpwuNtmifK9gRLYJ2YHA/e6dN4WltyO5l0ZFiODZ+7PHyc+p0VMFeZxTZE
yvIFuZKk6GP4NO9lZgX/vM0bft+RBhZcA03bTUtYN3qFk4BxVlQ3HJ6iaR8X1wGb
yP1bKq6+VfVEsGwtIFfcBPpB
-----END CERTIFICATE-----
