Certificate:
    Data:
        Version: 3 (0x2)
        Serial Number:
            61:5a:cd:a1:91:5f:70:55:db:d4:b9:7d:00:7e:39:87:51:9c:eb:75
        Signature Algorithm: sha256WithRSAEncryption
        Issuer: CN=xn--wgv71a119e.com
        Validity
            Not Before: Nov 15 00:47:41 2025 GMT
            Not After : Nov 13 00:47:41 2035 GMT
        Subject: CN=xn--wgv71a119e.com
        Subject Public Key Info:
            Public Key Algorithm: rsaEncryption
                Public-Key: (2048 bit)
                Modulus:
                    00:a9:6c:36:87:5c:3b:72:d9:3f:4e:1b:d6:d4:eb:
                    dc:6d:b6:7d:89:af:88:d1:b0:22:ba:d8:5d:47:67:
                    bb:d3:e3:a6:cb:8c:d2:cd:af:36:a3:fa:93:df:7a:
                    e0:f6:fd:6f:f0:e0:f5:2f:61:24:ac:53:01:05:0c:
                    2b:3a:70:0c:e7:83:54:45:ce:ca:5f:63:a4:d9:97:
                    29:85:02:2f:6d:9f:e2:95:f8:62:ac:3b:fa:96:22:
                    53:c9:db:77:30:49:01:03:8a:af:cb:a1:f1:89:04:
                    c7:05:b1:c4:db:fa:19:4f:d7:6d:13:a4:ca:b1:25:
                    d3:ff:c6:19:2a:5e:37:d2:04:72:c4:2f:45:8a:dc:
                    3f:8c:d4:c8:5e:84:d6:b8:b0:83:86:0b:28:78:4d:
                    5f:01:9a:4f:e5:42:93:a2:78:14:59:25:8f:5f:55:
                    1b:b7:09:ab:89:91:06:aa:1e:73:08:59:f8:cd:e7:
                    80:65:70:7c:19:02:7a:97:34:02:c7:15:ab:98:97:
                    64:cf:cf:0e:f2:2e:af:2a:c1:cd:33:ec:8a:f4:06:
                    90:07:0b:f4:ab:4e:bc:4f:d8:91:5b:fb:b0:8a:56:
                    28:08:65:20:e7:e6:55:7e:d0:f9:f8:a3:98:bb:b4:
                    09:45:23:0d:e7:e3:32:5a:11:78:f2:65:c1:c2:5e:
                    2a:55
                Exponent: 65537 (0x10001)
        X509v3 extensions:
            X509v3 Basic Constraints: critical
                CA:TRUE
            X509v3 Subject Alternative Name: 
                DNS:xn--wgv71a119e.com, DNS:*.xn--wgv71a119e.com, DNS:blahblahblahblah.com
            X509v3 Subject Key Identifier: 
                A1:F8:13:03:B0:5B:75:33:FB:B6:C4:58:18:EE:80:0D:9B:58:E2:2D
    Signature Algorithm: sha256WithRSAEncryption
    Signature Value:
        02:6e:42:2b:b8:b1:b8:d5:e4:a0:0d:42:78:57:b3:8e:35:b6:
        2b:3e:5d:34:62:a3:89:6e:1e:08:ad:99:25:d1:1a:c4:98:e6:
        ca:7c:9d:f5:82:af:02:e5:bf:15:b7:c6:f8:7a:91:35:27:dd:
        67:26:2e:41:2b:4c:5c:0e:d5:84:92:b0:c4:50:36:9c:0e:bd:
        1e:45:51:fd:16:ab:af:c1:c6:c3:4f:64:09:76:44:4f:ce:53:
        f0:65:5e:31:86:28:18:59:a8:68:a8:23:f0:62:1c:0c:be:e5:
        4c:60:73:86:cf:45:a6:9a:d3:21:ae:4a:5d:e3:06:29:f4:ba:
        09:12:0b:5d:ae:a4:cd:4c:bd:28:8d:ed:c2:b9:ff:91:b4:ef:
        78:38:5a:0b:c1:df:36:f5:ae:59:1d:a3:4e:99:20:23:43:fd:
        6f:30:b0:fb:e2:65:74:2d:e3:39:3f:13:41:db:c2:77:11:a8:
        1c:b6:d8:65:ed:97:6a:b5:98:4e:a6:be:36:a7:fb:07:9a:40:
        f1:24:fc:d1:65:4e:ed:8a:ac:a0:be:a3:83:1c:4f:a1:12:48:
        a1:5b:aa:d0:4e:04:e4:c1:e4:f9:2f:55:55:e3:21:70:1d:67:
        1a:a6:66:c7:00:6c:1b:01:02:eb:f0:50:fb:1c:ba:d8:6f:69:
        e3:65:a9:89
-----BEGIN CERTIFICATE-----
MIIDRTCCAi2gAwIBAgIUYVrNoZFfcFXb1Ll9AH45h1Gc63UwDQYJKoZIhvcNAQEL
BQAwHTEbMBkGA1UEAwwSeG4tLXdndjcxYTExOWUuY29tMB4XDTI1MTExNTAwNDc0
MVoXDTM1MTExMzAwNDc0MVowHTEbMBkGA1UEAwwSeG4tLXdndjcxYTExOWUuY29t
MIIBIjANBgkqhkiG9w0BAQEFAAOCAQ8AMIIBCgKCAQEAqWw2h1w7ctk/ThvW1Ovc
bbZ9ia+I0bAiuthdR2e70+Omy4zSza82o/qT33rg9v1v8OD1L2EkrFMBBQwrOnAM
54NURc7KX2Ok2ZcphQIvbZ/ilfhirDv6liJTydt3MEkBA4qvy6HxiQTHBbHE2/oZ
T9dtE6TKsSXT/8YZKl430gRyxC9Fitw/jNTIXoTWuLCDhgsoeE1fAZpP5UKTongU
WSWPX1UbtwmriZEGqh5zCFn4zeeAZXB8GQJ6lzQCxxWrmJdkz88O8i6vKsHNM+yK
9AaQBwv0q068T9iRW/uwilYoCGUg5+ZVftD5+KOYu7QJRSMN5+MyWhF48mXBwl4q
VQIDAQABo30wezAPBgNVHRMBAf8EBTADAQH/MEkGA1UdEQRCMECCEnhuLS13Z3Y3
MWExMTllLmNvbYIUKi54bi0td2d2NzFhMTE5ZS5jb22CFGJsYWhibGFoYmxhaGJs
YWguY29tMB0GA1UdDgQWBBSh+BMDsFt1M/u2xFgY7oANm1jiLTANBgkqhkiG9w0B
AQsFAAOCAQEAAm5CK7ixuNXkoA1CeFezjjW2Kz5dNGKjiW4eCK2ZJdEaxJjmynyd
9YKvAuW/FbfG+HqRNSfdZyYuQStMXA7VhJKwxFA2nA69HkVR/Rarr8HGw09kCXZE
T85T8GVeMYYoGFmoaKgj8GIcDL7lTGBzhs9FpprTIa5KXeMGKfS6CRILXa6kzUy9
KI3twrn/kbTveDhaC8HfNvWuWR2jTpkgI0P9bzCw++JldC3jOT8TQdvCdxGoHLbY
Ze2XarWYTqa+Nqf7B5pA8ST80WVO7YqsoL6jgxxPoRJIoVuq0E4E5MHk+S9VVeMh
cB1nGqZmxwBsGwEC6/BQ+xy62G9p42WpiQ==
-----END CERTIFICATE-----
