Certificate:
    Data:
        Version: 3 (0x2)
        Serial Number:
            14:c8:c7:f1:f1:6b:91:0b:18:45:4b:c0:65:f2:fc:0e
        Signature Algorithm: sha1WithRSAEncryption
        Issuer: C=US, ST=California, L=Mountain View, O=Test CA, CN=Test Root CA
        Validity
            Not Before: Oct 30 00:00:00 2008 GMT
            Not After : Dec 30 00:00:00 2016 GMT
        Subject: C=US, ST=California, L=Mountain View, O=Test CA, CN=127.0.0.1
        Subject Public Key Info:
            Public Key Algorithm: rsaEncryption
                Public-Key: (2048 bit)
                Modulus:
                    00:9c:1c:58:ac:e7:d5:65:f9:28:4b:45:1b:74:d9:
                    cb:0c:74:c8:90:9f:54:3b:4c:2a:19:d8:4e:6b:a3:
                    84:33:0f:1c:ec:bd:85:9d:02:73:f4:50:df:3e:f6:
                    c4:f5:d1:56:84:86:04:8b:e6:cf:1e:ff:31:b4:97:
                    06:54:be:36:37:20:c3:b7:00:f0:ab:3c:54:2b:bb:
                    63:32:9a:af:cf:59:0a:f8:60:ba:08:c1:63:d8:56:
                    0a:da:88:94:f4:ce:85:65:a2:ca:0b:9c:6d:61:17:
                    3b:b2:62:24:02:0d:f4:4d:95:33:15:7d:b2:76:5c:
                    a3:30:c7:80:4e:ef:fc:87:61:1a:79:02:5a:c9:b4:
                    0b:92:a7:3d:39:30:f8:68:6c:86:09:da:66:f5:d6:
                    e5:e5:ee:d0:fc:13:eb:1c:7f:55:11:ec:82:ed:5c:
                    5d:e6:12:70:55:1a:f0:fb:55:63:5f:f4:fd:fd:52:
                    57:62:f8:0e:f4:1d:22:e5:3d:9a:d9:cb:53:1f:54:
                    03:cd:7e:9c:65:20:f2:0b:1c:4d:bd:0e:f1:ce:9f:
                    53:40:23:af:72:15:b9:01:83:c8:b7:ff:4a:c6:62:
                    17:d2:a2:cd:23:c9:87:52:61:a0:05:8c:95:b7:e3:
                    8f:d5:28:a8:ae:2a:a9:63:61:86:1f:11:2d:33:e6:
                    cd:77
                Exponent: 65537 (0x10001)
        X509v3 extensions:
            X509v3 Basic Constraints: critical
                CA:FALSE
            X509v3 Subject Key Identifier: 
                96:EF:6D:77:68:E0:67:4A:1B:C9:10:BD:D7:22:F6:5C:E4:82:05:24
            X509v3 Authority Key Identifier: 
                9B:26:0B:8A:98:A9:BB:1D:B9:1F:1C:E3:1A:40:33:ED:8E:17:88:AB
            X509v3 Extended Key Usage: 
                TLS Web Server Authentication, TLS Web Client Authentication
            X509v3 Subject Alternative Name: 
                IP Address:127.0.0.1
    Signature Algorithm: sha1WithRSAEncryption
    Signature Value:
        60:96:6e:78:af:a2:3b:0e:49:f7:31:b7:31:76:5e:01:b9:7b:
        3b:0c:dc:93:82:ed:4e:d9:5b:0f:fc:be:44:7e:da:d8:8c:54:
        dc:3b:77:1c:03:79:a3:ad:4d:aa:f3:08:50:c1:44:76:d9:b9:
        d5:f8:21:4f:89:e0:42:6b:20:81:1b:8f:eb:04:51:25:2e:3b:
        9c:0e:a0:dc:28:cc:1c:15:36:cc:2f:73:b2:d4:29:38:1c:f8:
        05:34:41:42:bf:88:29:6a:f5:a4:a4:3b:73:74:07:7d:14:9a:
        30:27:0b:da:67:5e:20:fe:46:d1:c0:54:3b:a7:01:04:a1:7f:
        4a:1b:1a:51:0b:d0:04:07:d2:76:85:43:12:9f:74:9f:f4:9c:
        64:24:7a:65:56:9b:04:c0:f1:35:28:c3:a2:2a:73:3c:4d:9b:
        17:14:99:8d:a8:81:38:c8:a8:70:e2:10:11:ba:15:79:f9:c1:
        fa:55:22:78:74:c8:ae:60:ba:55:5a:6f:c2:2b:54:b5:49:ce:
        7e:4d:a1:4e:25:5c:9f:41:d6:1f:e8:c3:76:1d:a4:ad:d3:f6:
        ec:b8:13:c8:e8:87:ac:ac:e4:45:13:1d:ec:6a:0b:81:19:28:
        71:aa:f2:7d:d7:3a:a3:c2:ad:18:8d:48:40:b8:f1:2b:84:f2:
        47:17:63:c4
-----BEGIN CERTIFICATE-----
MIIDzjCCAragAwIBAgIQFMjH8fFrkQsYRUvAZfL8DjANBgkqhkiG9w0BAQUFADBj
MQswCQYDVQQGEwJVUzETMBEGA1UECAwKQ2FsaWZvcm5pYTEWMBQGA1UEBwwNTW91
bnRhaW4gVmlldzEQMA4GA1UECgwHVGVzdCBDQTEVMBMGA1UEAwwMVGVzdCBSb290
IENBMB4XDTA4MTAzMDAwMDAwMFoXDTE2MTIzMDAwMDAwMFowYDELMAkGA1UEBhMC
VVMxEzARBgNVBAgMCkNhbGlmb3JuaWExFjAUBgNVBAcMDU1vdW50YWluIFZpZXcx
EDAOBgNVBAoMB1Rlc3QgQ0ExEjAQBgNVBAMMCTEyNy4wLjAuMTCCASIwDQYJKoZI
hvcNAQEBBQADggEPADCCAQoCggEBAJwcWKzn1WX5KEtFG3TZywx0yJCfVDtMKhnY
TmujhDMPHOy9hZ0Cc/RQ3z72xPXRVoSGBIvmzx7/MbSXBlS+Njcgw7cA8Ks8VCu7
YzKar89ZCvhgugjBY9hWCtqIlPTOhWWiygucbWEXO7JiJAIN9E2VMxV9snZcozDH
gE7v/IdhGnkCWsm0C5KnPTkw+GhshgnaZvXW5eXu0PwT6xx/VRHsgu1cXeYScFUa
8PtVY1/0/f1SV2L4DvQdIuU9mtnLUx9UA81+nGUg8gscTb0O8c6fU0Ajr3IVuQGD
yLf/SsZiF9KizSPJh1JhoAWMlbfjj9UoqK4qqWNhhh8RLTPmzXcCAwEAAaOBgDB+
MAwGA1UdEwEB/wQCMAAwHQYDVR0OBBYEFJbvbXdo4GdKG8kQvdci9lzkggUkMB8G
A1UdIwQYMBaAFJsmC4qYqbsduR8c4xpAM+2OF4irMB0GA1UdJQQWMBQGCCsGAQUF
BwMBBggrBgEFBQcDAjAPBgNVHREECDAGhwR/AAABMA0GCSqGSIb3DQEBBQUAA4IB
AQBglm54r6I7Dkn3Mbcxdl4BuXs7DNyTgu1O2VsP/L5EftrYjFTcO3ccA3mjrU2q
8whQwUR22bnV+CFPieBCayCBG4/rBFElLjucDqDcKMwcFTbML3Oy1Ck4HPgFNEFC
v4gpavWkpDtzdAd9FJowJwvaZ14g/kbRwFQ7pwEEoX9KGxpRC9AEB9J2hUMSn3Sf
9JxkJHplVpsEwPE1KMOiKnM8TZsXFJmNqIE4yKhw4hARuhV5+cH6VSJ4dMiuYLpV
Wm/CK1S1Sc5+TaFOJVyfQdYf6MN2HaSt0/bsuBPI6IesrORFEx3saguBGShxqvJ9
1zqjwq0YjUhAuPErhPJHF2PE
-----END CERTIFICATE-----
