-----BEGIN PRIVATE KEY-----
MIIEvwIBADANBgkqhkiG9w0BAQEFAASCBKkwggSlAgEAAoIBAQC9o+TdWyQ2AkBd
6MXG42PIyEXvsufPWoZG2ZReNf3amGoh0CmUXffA7jFiJUDqBy/K/Cyuf7IBGgfG
SA9KM2kTUbvMMR0uXqrx0hlPDaZRg0DFwBBFl7WrRUjE6ivlI8XadwBKTc8EIZOr
xtm22PA2z1HCbE7pLvuA0s4kJ1kbhYkUQneEhqiahC2tsuOMj90lI0T6ChgjCb1r
8Odgr0MOH3hkhyo+NlRSKpI0ZKlwuAA4UdBxyII5YmCcd3U9dHYviEezZ4AQwWEd
CjUaNkrfNewDatDf97LTrPo9VY6BTq3g77LLlpW93roTiVhEQb8YjrKS4jjmIQEN
tzTnh7GxAgMBAAECggEBAJQqbTIVd6FK+QdmSsAuAVRqRVoWKc90Jt1MOgOxo3kb
BDEO9q2ZDW2LrMHF4YX3v3uUs0RTOLxrng9pVajfqgUSIuxSoz4LcPwm7uc4/u1I
416dxRjag3IhW82eOFV7MaaSu4NSb6AGq93WK1wU+vmX2YVSIgVGU/I+whi1NYWt
4Cq72f0E30F72G1+OrBZpdJpojSVOfRZY+VK8CIphNLtXlCzNv2omfTfvmyfEi02
vsxFylck6ULmQNFbuIaVrAJx5giAW8VFnvs/6NatyO+xOdelrgYJ/q+UQwvtstD2
qVoxV2a3mDQ0djoK6GZmFFwGy2BDlnFrEpugXjqgEdECgYEA+5SQuBLX1Xd4W7H6
WLxljobf7ACLd9vpgPmhtEpWTHFRdvdYrhc8Gs/FIEIGNoIFimZJZ0+DzOfULep8
2WYMheIahYOK+4nZfHyZbf2pdiXaNukX0C/wwTsACuTBOWC4GH0v1LYkYykDlCyf
MrFKuS9WjGFPB893s5M7lClpn3sCgYEAwPjDyGYmRif4ZGe4GfL1+vbmHJu0bd+3
n4FfwEpvaBn2xrNjcT+tc9uANN6knAccT9krWtmthJ+SYQ21hlTinbpzYC6/4Olf
BcKA4EbQTr9EV3IeqI5PRkMMJ4VKzfbskLSrcO6YGZq7dVfhULRFGms7wHx+ijJP
xP7gsNOQdcMCgYEA9McvK7pBwBP2yhjYAQCFO3ClbEV3bY5NmkzIddeiMcxLvBmb
cf9vXpLrNKCo1N4bL/an0tn93h9uRaKSCSAObTF6Jo+/aVBNiJ7e1bLp7+eScrzG
i6wpbojOWMsL6ZzeYg1jvW3e55AfSEtGNhdkIdwaNIn1UB8fU1ycqmLEvwMCgYBj
ZwF7Flt64hYKqn7kJwpcp5grfm1397jf2kXXiMBQkKdU/Y0pBhM0TgqBsXp7wRHt
c8Hof57pZUWC5wvt0YYWl7fdANfoZG6FSgcXAINHPTFYFjoCu6PMXrdBGGFLLXn4
pIh3mQASmGkd7hHrf6DlFf3mjnqkd3wtztkxXRnZ/wKBgQCBEMMJa19ONAdVWtP9
G2QeqthDPoMJDbvUAbjPoxUwBhN8vIObeamWsaKU9zbuDPpNaKw5pq6PdEFPOttu
i4du0hSRW/tH8XBa8lKdbGak8/KMLesfd3BKKLhwLe8Zr7l7n0br920MTWKbKuqM
ZAEGf9m7isatL4lNdngVXV2aUA==
-----END PRIVATE KEY-----
Certificate:
    Data:
        Version: 3 (0x2)
        Serial Number:
            14:c8:c7:f1:f1:6b:91:0b:18:45:4b:c0:65:f2:fc:22
        Signature Algorithm: sha1WithRSAEncryption
        Issuer: C=US, ST=California, L=Mountain View, O=Test CA, CN=Test Root CA
        Validity
            Not Before: Nov 15 00:47:49 2025 GMT
            Not After : Nov 15 00:47:49 2027 GMT
        Subject: C=US, ST=California, L=Mountain View, O=Test CA, CN=127.0.0.1
        Subject Public Key Info:
            Public Key Algorithm: rsaEncryption
                Public-Key: (2048 bit)
                Modulus:
                    00:bd:a3:e4:dd:5b:24:36:02:40:5d:e8:c5:c6:e3:
                    63:c8:c8:45:ef:b2:e7:cf:5a:86:46:d9:94:5e:35:
                    fd:da:98:6a:21:d0:29:94:5d:f7:c0:ee:31:62:25:
                    40:ea:07:2f:ca:fc:2c:ae:7f:b2:01:1a:07:c6:48:
                    0f:4a:33:69:13:51:bb:cc:31:1d:2e:5e:aa:f1:d2:
                    19:4f:0d:a6:51:83:40:c5:c0:10:45:97:b5:ab:45:
                    48:c4:ea:2b:e5:23:c5:da:77:00:4a:4d:cf:04:21:
                    93:ab:c6:d9:b6:d8:f0:36:cf:51:c2:6c:4e:e9:2e:
                    fb:80:d2:ce:24:27:59:1b:85:89:14:42:77:84:86:
                    a8:9a:84:2d:ad:b2:e3:8c:8f:dd:25:23:44:fa:0a:
                    18:23:09:bd:6b:f0:e7:60:af:43:0e:1f:78:64:87:
                    2a:3e:36:54:52:2a:92:34:64:a9:70:b8:00:38:51:
                    d0:71:c8:82:39:62:60:9c:77:75:3d:74:76:2f:88:
                    47:b3:67:80:10:c1:61:1d:0a:35:1a:36:4a:df:35:
                    ec:03:6a:d0:df:f7:b2:d3:ac:fa:3d:55:8e:81:4e:
                    ad:e0:ef:b2:cb:96:95:bd:de:ba:13:89:58:44:41:
                    bf:18:8e:b2:92:e2:38:e6:21:01:0d:b7:34:e7:87:
                    b1:b1
                Exponent: 65537 (0x10001)
        X509v3 extensions:
            X509v3 Basic Constraints: critical
                CA:FALSE
            X509v3 Subject Key Identifier: 
                1F:90:87:C1:2E:EE:B4:70:94:B3:39:33:71:D2:37:34:19:46:7C:40
            X509v3 Authority Key Identifier: 
                9B:26:0B:8A:98:A9:BB:1D:B9:1F:1C:E3:1A:40:33:ED:8E:17:88:AB
            X509v3 Extended Key Usage: 
                TLS Web Server Authentication, TLS Web Client Authentication
            X509v3 Subject Alternative Name: 
                IP Address:127.0.0.1
    Signature Algorithm: sha1WithRSAEncryption
    Signature Value:
        8b:6c:f8:7e:c2:a6:42:cf:2c:17:36:17:9f:2c:0d:dc:f3:e2:
        98:b5:f6:13:de:16:51:74:13:fa:e7:5c:a5:fa:b1:38:3d:e1:
        4d:6f:6a:d5:bd:e3:73:a4:83:5c:2b:ca:29:39:f5:d8:78:cb:
        06:2d:d1:91:7b:3b:7f:19:b5:e3:f0:e0:50:0a:05:96:19:a0:
        b5:00:0e:94:98:10:7b:42:df:67:77:ed:79:d4:00:57:ec:42:
        fb:a8:c4:26:86:cc:1a:c9:1a:11:f9:46:18:ae:bd:0c:88:c0:
        86:e3:2f:ce:51:d6:10:c9:51:6c:04:45:73:65:4a:e0:25:ca:
        a7:b2:dd:fc:ca:e2:d8:c9:bb:e8:42:d0:fa:67:f4:71:7b:a4:
        4b:1f:fc:d9:aa:5c:e5:4f:63:51:29:ce:8c:75:dd:2f:64:a3:
        ce:bd:c7:6a:87:5e:9f:36:a1:91:ea:bd:a3:86:29:bc:d7:dd:
        61:fc:5e:61:65:32:78:8d:b7:00:52:02:89:dd:6f:36:d0:dd:
        1c:a4:1b:f7:a3:db:00:e7:24:27:8b:be:ed:ba:ce:d8:72:8c:
        b3:66:21:59:51:e0:21:14:28:92:e5:3c:33:9f:99:5a:13:9d:
        54:2f:03:4c:df:3c:ac:9c:8d:e7:cd:c5:23:d6:5f:bb:68:25:
        5a:9c:27:47
-----BEGIN CERTIFICATE-----
MIIDzjCCAragAwIBAgIQFMjH8fFrkQsYRUvAZfL8IjANBgkqhkiG9w0BAQUFADBj
MQswCQYDVQQGEwJVUzETMBEGA1UECAwKQ2FsaWZvcm5pYTEWMBQGA1UEBwwNTW91
bnRhaW4gVmlldzEQMA4GA1UECgwHVGVzdCBDQTEVMBMGA1UEAwwMVGVzdCBSb290
IENBMB4XDTI1MTExNTAwNDc0OVoXDTI3MTExNTAwNDc0OVowYDELMAkGA1UEBhMC
VVMxEzARBgNVBAgMCkNhbGlmb3JuaWExFjAUBgNVBAcMDU1vdW50YWluIFZpZXcx
EDAOBgNVBAoMB1Rlc3QgQ0ExEjAQBgNVBAMMCTEyNy4wLjAuMTCCASIwDQYJKoZI
hvcNAQEBBQADggEPADCCAQoCggEBAL2j5N1bJDYCQF3oxcbjY8jIRe+y589ahkbZ
lF41/dqYaiHQKZRd98DuMWIlQOoHL8r8LK5/sgEaB8ZID0ozaRNRu8wxHS5eqvHS
GU8NplGDQMXAEEWXtatFSMTqK+Ujxdp3AEpNzwQhk6vG2bbY8DbPUcJsTuku+4DS
ziQnWRuFiRRCd4SGqJqELa2y44yP3SUjRPoKGCMJvWvw52CvQw4feGSHKj42VFIq
kjRkqXC4ADhR0HHIgjliYJx3dT10di+IR7NngBDBYR0KNRo2St817ANq0N/3stOs
+j1VjoFOreDvssuWlb3euhOJWERBvxiOspLiOOYhAQ23NOeHsbECAwEAAaOBgDB+
MAwGA1UdEwEB/wQCMAAwHQYDVR0OBBYEFB+Qh8Eu7rRwlLM5M3HSNzQZRnxAMB8G
A1UdIwQYMBaAFJsmC4qYqbsduR8c4xpAM+2OF4irMB0GA1UdJQQWMBQGCCsGAQUF
BwMBBggrBgEFBQcDAjAPBgNVHREECDAGhwR/AAABMA0GCSqGSIb3DQEBBQUAA4IB
AQCLbPh+wqZCzywXNhefLA3c8+KYtfYT3hZRdBP651yl+rE4PeFNb2rVveNzpINc
K8opOfXYeMsGLdGRezt/GbXj8OBQCgWWGaC1AA6UmBB7Qt9nd+151ABX7EL7qMQm
hswayRoR+UYYrr0MiMCG4y/OUdYQyVFsBEVzZUrgJcqnst38yuLYybvoQtD6Z/Rx
e6RLH/zZqlzlT2NRKc6Mdd0vZKPOvcdqh16fNqGR6r2jhim8191h/F5hZTJ4jbcA
UgKJ3W820N0cpBv3o9sA5yQni77tus7YcoyzZiFZUeAhFCiS5Twzn5laE51ULwNM
3zysnI3nzcUj1l+7aCVanCdH
-----END CERTIFICATE-----
