Certificate:
    Data:
        Version: 3 (0x2)
        Serial Number:
            6d:79:e4:77:28:ed:1b:2e:00:3c:b7:ee:d8:33:ae:c1:68:ea:89:15
        Signature Algorithm: sha256WithRSAEncryption
        Issuer: C=US, ST=California, L=Mountain View, O=Test CA, CN=127.0.0.1
        Validity
            Not Before: Nov 15 00:47:41 2025 GMT
            Not After : Nov 13 00:47:41 2035 GMT
        Subject: C=US, ST=California, L=Mountain View, O=Test CA, CN=127.0.0.1
        Subject Public Key Info:
            Public Key Algorithm: rsaEncryption
                Public-Key: (2048 bit)
                Modulus:
                    00:ba:11:5f:45:f0:2d:d4:7a:fd:29:38:5b:c9:7c:
                    5b:86:29:a1:88:3e:94:ea:27:d6:d9:72:e8:ce:06:
                    dc:48:ca:cf:b4:43:de:43:1d:58:09:55:e5:19:99:
                    b3:c1:df:f6:dd:a3:ae:09:eb:2a:e3:48:c5:e8:74:
                    7e:25:6d:01:05:c3:a5:0e:25:7a:4a:2b:01:92:86:
                    a7:81:e5:f2:bb:08:71:0d:c1:88:fd:7a:38:75:58:
                    c4:97:3a:4f:6c:a0:72:09:60:09:9e:00:94:8a:00:
                    eb:2c:3d:1c:1e:09:51:90:dc:79:5d:61:24:15:1c:
                    6c:cb:ab:5d:9b:bd:d4:ec:0b:cc:40:b3:82:9c:02:
                    8d:2c:6e:11:19:5b:4f:0b:8f:fa:e3:f8:96:8c:87:
                    c2:d1:b5:ba:ec:75:9a:d1:a0:ee:62:18:f2:30:95:
                    ae:d6:3b:25:11:6f:1a:45:f8:da:72:b7:90:53:dc:
                    69:5b:cf:54:ca:d4:0f:64:f9:49:6b:b5:73:94:40:
                    a2:52:20:f9:46:61:56:c4:20:f2:75:2d:b8:30:e4:
                    ee:bb:d1:68:86:8c:54:eb:4b:06:27:ea:f6:d7:be:
                    59:6e:e4:42:01:62:65:2f:e3:77:46:6a:9d:17:03:
                    a2:5c:1b:1b:df:9b:1c:0d:77:c6:73:f6:f9:c3:15:
                    da:97
                Exponent: 65537 (0x10001)
        X509v3 extensions:
            X509v3 Subject Alternative Name: 
                DNS:www.example.org, DNS:mail.example.org, DNS:mail.example.com, DNS:example.test
            X509v3 Subject Key Identifier: 
                85:13:2C:BE:69:BB:C2:26:96:70:56:DC:EB:DD:57:06:7E:FF:F7:35
    Signature Algorithm: sha256WithRSAEncryption
    Signature Value:
        a4:8c:17:e8:bc:67:b5:1d:fc:90:44:6d:9f:9b:db:5c:cb:ed:
        65:b4:e3:6f:14:65:be:9a:cc:b4:35:9a:ed:b9:e5:18:a4:9f:
        54:e3:45:77:96:e6:e9:c9:40:23:73:61:3d:dd:63:5b:12:3e:
        9b:b4:18:04:4d:52:98:50:13:b6:ef:09:34:06:3f:b5:d8:41:
        c8:36:5a:73:c8:b2:fc:f1:91:b0:e1:04:e6:89:eb:56:a9:dc:
        2d:e8:8f:8e:85:77:cc:d1:d0:e8:08:32:49:d8:4f:fd:74:01:
        03:6d:57:50:c8:37:2b:7c:37:fd:2c:f9:fa:26:c8:af:c3:c9:
        7c:d3:8d:19:4e:03:41:6d:b6:a1:22:e3:f6:ed:d4:bd:9c:56:
        2e:a2:a8:04:66:b3:a6:e4:95:ee:e7:ce:a3:9e:99:ab:27:0c:
        46:48:a5:47:81:cb:22:17:04:b3:fe:cf:e0:01:98:83:44:43:
        8a:2d:b1:78:f0:91:74:6b:56:f3:85:38:07:39:76:71:8b:83:
        1a:d9:77:99:e6:46:5a:4b:07:d6:23:89:db:78:3b:5c:72:98:
        c2:5c:ca:59:48:44:43:c9:f6:a6:34:af:44:d1:38:cc:80:44:
        89:28:46:40:f2:0f:89:c3:8e:dc:f7:37:e7:4d:bd:fa:44:fb:
        fb:48:30:3c
-----BEGIN CERTIFICATE-----
MIIDvTCCAqWgAwIBAgIUbXnkdyjtGy4APLfu2DOuwWjqiRUwDQYJKoZIhvcNAQEL
BQAwYDELMAkGA1UEBhMCVVMxEzARBgNVBAgMCkNhbGlmb3JuaWExFjAUBgNVBAcM
DU1vdW50YWluIFZpZXcxEDAOBgNVBAoMB1Rlc3QgQ0ExEjAQBgNVBAMMCTEyNy4w
LjAuMTAeFw0yNTExMTUwMDQ3NDFaFw0zNTExMTMwMDQ3NDFaMGAxCzAJBgNVBAYT
AlVTMRMwEQYDVQQIDApDYWxpZm9ybmlhMRYwFAYDVQQHDA1Nb3VudGFpbiBWaWV3
MRAwDgYDVQQKDAdUZXN0IENBMRIwEAYDVQQDDAkxMjcuMC4wLjEwggEiMA0GCSqG
SIb3DQEBAQUAA4IBDwAwggEKAoIBAQC6EV9F8C3Uev0pOFvJfFuGKaGIPpTqJ9bZ
cujOBtxIys+0Q95DHVgJVeUZmbPB3/bdo64J6yrjSMXodH4lbQEFw6UOJXpKKwGS
hqeB5fK7CHENwYj9ejh1WMSXOk9soHIJYAmeAJSKAOssPRweCVGQ3HldYSQVHGzL
q12bvdTsC8xAs4KcAo0sbhEZW08Lj/rj+JaMh8LRtbrsdZrRoO5iGPIwla7WOyUR
bxpF+Npyt5BT3Glbz1TK1A9k+UlrtXOUQKJSIPlGYVbEIPJ1Lbgw5O670WiGjFTr
SwYn6vbXvllu5EIBYmUv43dGap0XA6JcGxvfmxwNd8Zz9vnDFdqXAgMBAAGjbzBt
MEwGA1UdEQRFMEOCD3d3dy5leGFtcGxlLm9yZ4IQbWFpbC5leGFtcGxlLm9yZ4IQ
bWFpbC5leGFtcGxlLmNvbYIMZXhhbXBsZS50ZXN0MB0GA1UdDgQWBBSFEyy+abvC
JpZwVtzr3VcGfv/3NTANBgkqhkiG9w0BAQsFAAOCAQEApIwX6LxntR38kERtn5vb
XMvtZbTjbxRlvprMtDWa7bnlGKSfVONFd5bm6clAI3NhPd1jWxI+m7QYBE1SmFAT
tu8JNAY/tdhByDZac8iy/PGRsOEE5onrVqncLeiPjoV3zNHQ6AgySdhP/XQBA21X
UMg3K3w3/Sz5+ibIr8PJfNONGU4DQW22oSLj9u3UvZxWLqKoBGazpuSV7ufOo56Z
qycMRkilR4HLIhcEs/7P4AGYg0RDii2xePCRdGtW84U4Bzl2cYuDGtl3meZGWksH
1iOJ23g7XHKYwlzKWUhEQ8n2pjSvRNE4zIBEiShGQPIPicOO3Pc35029+kT7+0gw
PA==
-----END CERTIFICATE-----
