Certificate:
    Data:
        Version: 3 (0x2)
        Serial Number:
            14:c8:c7:f1:f1:6b:91:0b:18:45:4b:c0:65:f2:fc:16
        Signature Algorithm: sha256WithRSAEncryption
        Issuer: C=US, ST=California, L=Mountain View, O=Test CA, CN=Test Root CA
        Validity
            Not Before: Sep  1 00:00:00 2018 GMT
            Not After : Apr  2 00:00:00 2015 GMT
        Subject: C=US, ST=California, L=Mountain View, O=Test CA, CN=127.0.0.1
        Subject Public Key Info:
            Public Key Algorithm: rsaEncryption
                Public-Key: (2048 bit)
                Modulus:
                    00:95:7d:39:e0:84:6e:1c:26:8f:c5:18:85:c8:e3:
                    8b:b6:ab:59:24:fb:f4:5b:76:46:5d:f6:d8:81:4c:
                    e0:2e:ec:2c:8b:d3:d2:07:15:37:65:2d:1e:fc:15:
                    e4:e5:1b:e4:b7:a8:98:1c:f2:8b:80:14:64:79:25:
                    de:6a:d4:d9:5d:11:53:9a:e1:33:76:c2:a0:01:31:
                    d5:b0:f0:77:cc:f0:58:f8:8f:04:c6:cc:6e:9d:9a:
                    47:28:91:a3:c1:01:de:d2:79:5e:3b:2c:e2:00:23:
                    ec:e2:22:d1:94:cc:5a:f4:f3:a9:10:2f:56:0a:7a:
                    5f:69:da:ec:fc:84:2e:04:ba:24:31:fc:22:96:92:
                    d6:2e:6c:94:0b:aa:f8:cb:7e:41:5c:26:d1:e8:e9:
                    87:cb:3c:bb:3b:57:fb:a2:05:b5:93:cf:f7:a8:fd:
                    37:b8:af:9b:54:9c:64:75:5d:29:65:e7:99:67:4b:
                    48:01:49:16:dc:d8:95:4f:8f:e6:08:6a:f4:77:c6:
                    a6:82:db:ef:47:9c:85:b5:87:84:59:47:e7:15:87:
                    81:6d:ce:1e:09:57:19:4a:40:b7:62:21:60:4f:0f:
                    08:21:f5:c5:af:37:9d:65:ab:62:9e:d8:eb:62:b5:
                    39:2e:92:f4:cf:93:30:88:9c:9a:ce:e5:58:4e:5b:
                    3c:d5
                Exponent: 65537 (0x10001)
        X509v3 extensions:
            X509v3 Basic Constraints: critical
                CA:FALSE
            X509v3 Subject Key Identifier: 
                10:4D:82:A8:D4:78:47:F6:2E:2D:BF:29:69:A9:85:EF:18:B0:47:E9
            X509v3 Authority Key Identifier: 
                9B:26:0B:8A:98:A9:BB:1D:B9:1F:1C:E3:1A:40:33:ED:8E:17:88:AB
            X509v3 Extended Key Usage: 
                TLS Web Server Authentication, TLS Web Client Authentication
            X509v3 Subject Alternative Name: 
                IP Address:127.0.0.1
    Signature Algorithm: sha256WithRSAEncryption
    Signature Value:
        1d:ad:c0:ad:46:66:07:3f:7a:1e:6f:ad:dd:54:3a:a8:a3:3b:
        22:bf:3d:82:6e:d6:59:b3:fb:85:7a:2c:d0:9c:fe:59:fa:5e:
        26:78:f5:23:a8:ab:81:b4:5e:9b:38:61:ca:9f:06:57:1d:b0:
        8e:bf:c5:13:19:c3:ed:4d:a4:bb:4c:ff:7a:59:d8:43:10:cc:
        d5:5a:43:88:d6:89:3c:4a:3f:c0:79:39:ad:82:2f:10:89:3d:
        42:4b:e9:38:12:a2:84:6a:71:2c:53:5c:85:36:2f:ef:34:46:
        29:4d:52:08:94:01:af:0c:f2:96:51:e2:09:33:b5:9e:e5:31:
        e6:58:fc:4f:99:98:16:47:8b:47:ef:f3:40:3e:a6:40:f9:bc:
        6e:02:0b:9a:ce:6a:69:c5:99:d9:7b:0d:da:ed:df:d3:7e:03:
        0f:cb:ea:e9:c2:12:99:1e:10:3f:60:45:38:ce:6c:30:ac:6d:
        44:67:4a:0b:73:f2:de:c4:59:e6:3c:b8:5c:87:f0:a4:f5:9b:
        bd:fe:b8:ed:94:7c:cd:b1:39:a7:15:30:f4:ca:e3:c1:84:5f:
        b6:1f:c5:f3:e8:5d:e2:06:47:8d:e2:46:be:fa:5c:f2:d2:2a:
        1e:ee:f0:cf:da:79:44:3b:66:c2:77:50:6a:68:56:62:ad:b6:
        e9:3e:56:3e
-----BEGIN CERTIFICATE-----
MIIDzjCCAragAwIBAgIQFMjH8fFrkQsYRUvAZfL8FjANBgkqhkiG9w0BAQsFADBj
MQswCQYDVQQGEwJVUzETMBEGA1UECAwKQ2FsaWZvcm5pYTEWMBQGA1UEBwwNTW91
bnRhaW4gVmlldzEQMA4GA1UECgwHVGVzdCBDQTEVMBMGA1UEAwwMVGVzdCBSb290
IENBMB4XDTE4MDkwMTAwMDAwMFoXDTE1MDQwMjAwMDAwMFowYDELMAkGA1UEBhMC
VVMxEzARBgNVBAgMCkNhbGlmb3JuaWExFjAUBgNVBAcMDU1vdW50YWluIFZpZXcx
EDAOBgNVBAoMB1Rlc3QgQ0ExEjAQBgNVBAMMCTEyNy4wLjAuMTCCASIwDQYJKoZI
hvcNAQEBBQADggEPADCCAQoCggEBAJV9OeCEbhwmj8UYhcjji7arWST79Ft2Rl32
2IFM4C7sLIvT0gcVN2UtHvwV5OUb5LeomBzyi4AUZHkl3mrU2V0RU5rhM3bCoAEx
1bDwd8zwWPiPBMbMbp2aRyiRo8EB3tJ5Xjss4gAj7OIi0ZTMWvTzqRAvVgp6X2na
7PyELgS6JDH8IpaS1i5slAuq+Mt+QVwm0ejph8s8uztX+6IFtZPP96j9N7ivm1Sc
ZHVdKWXnmWdLSAFJFtzYlU+P5ghq9HfGpoLb70echbWHhFlH5xWHgW3OHglXGUpA
t2IhYE8PCCH1xa83nWWrYp7Y62K1OS6S9M+TMIicms7lWE5bPNUCAwEAAaOBgDB+
MAwGA1UdEwEB/wQCMAAwHQYDVR0OBBYEFBBNgqjUeEf2Li2/KWmphe8YsEfpMB8G
A1UdIwQYMBaAFJsmC4qYqbsduR8c4xpAM+2OF4irMB0GA1UdJQQWMBQGCCsGAQUF
BwMBBggrBgEFBQcDAjAPBgNVHREECDAGhwR/AAABMA0GCSqGSIb3DQEBCwUAA4IB
AQAdrcCtRmYHP3oeb63dVDqoozsivz2CbtZZs/uFeizQnP5Z+l4mePUjqKuBtF6b
OGHKnwZXHbCOv8UTGcPtTaS7TP96WdhDEMzVWkOI1ok8Sj/AeTmtgi8QiT1CS+k4
EqKEanEsU1yFNi/vNEYpTVIIlAGvDPKWUeIJM7We5THmWPxPmZgWR4tH7/NAPqZA
+bxuAguazmppxZnZew3a7d/TfgMPy+rpwhKZHhA/YEU4zmwwrG1EZ0oLc/LexFnm
PLhch/Ck9Zu9/rjtlHzNsTmnFTD0yuPBhF+2H8Xz6F3iBkeN4ka++lzy0ioe7vDP
2nlEO2bCd1BqaFZirbbpPlY+
-----END CERTIFICATE-----
