Certificate:
    Data:
        Version: 3 (0x2)
        Serial Number:
            09:1b:48:04:5e:67:88:25:52:56:f2:88:cb:a8:85:84:09:92:e0:8f
        Signature Algorithm: sha256WithRSAEncryption
        Issuer: C=US, ST=California, L=Mountain View, O=Test CA, CN=127.0.0.1
        Validity
            Not Before: Nov 15 00:47:41 2025 GMT
            Not After : Nov 13 00:47:41 2035 GMT
        Subject: C=US, ST=California, L=Mountain View, O=Test CA, CN=127.0.0.1
        Subject Public Key Info:
            Public Key Algorithm: rsaEncryption
                Public-Key: (2048 bit)
                Modulus:
                    00:b8:48:dc:13:d0:f0:89:3a:c9:82:b9:af:ea:34:
                    08:02:58:9d:e8:cf:4c:84:0c:74:ff:cb:3d:9f:41:
                    a0:68:30:dc:c3:84:50:f5:36:73:97:59:38:5e:f6:
                    f6:2d:5e:d7:c1:85:f7:b3:d3:43:ba:c8:99:48:55:
                    78:34:9b:8a:6b:11:a3:72:cd:99:46:30:e8:b9:b8:
                    91:bf:dc:bb:09:4e:52:f1:7e:88:2c:05:e4:a1:9c:
                    fb:25:7c:c7:52:e5:47:e5:7d:4c:50:ec:3f:52:fd:
                    e8:da:ca:08:ca:ee:5e:47:9d:bc:22:24:90:a9:65:
                    78:34:c6:f9:62:29:69:6d:10:36:a4:0d:2f:55:e1:
                    7d:a7:77:e7:bd:99:09:c5:9d:68:f6:43:76:96:2d:
                    35:70:fc:d1:6c:0a:d1:b1:16:24:8b:c3:ee:89:b2:
                    fa:e6:97:5c:b2:02:04:8b:72:a8:6b:39:b8:ca:03:
                    79:7e:51:91:92:d7:f1:55:bd:ac:e1:e1:b4:46:f1:
                    50:e1:f2:f9:c5:61:00:ae:39:b9:9a:d6:c2:7a:86:
                    7b:ad:3e:a7:fa:b5:39:a0:ce:de:8a:ef:4a:27:40:
                    d9:24:b8:07:f5:a6:ed:4a:35:02:22:f7:16:c8:52:
                    2d:b1:98:06:04:3b:2a:65:c4:3b:30:a1:3b:59:94:
                    f4:f5
                Exponent: 65537 (0x10001)
        X509v3 extensions:
            X509v3 Basic Constraints: critical
                CA:TRUE
            X509v3 Subject Alternative Name: 
                IP Address:127.0.0.2, IP Address:FE80:0:0:0:0:0:0:1, DNS:test.example, email:test@test.example, othername: 1.2.3.4:ignore me, DirName:/CN=127.0.0.3
            X509v3 Subject Key Identifier: 
                BE:CC:D7:D2:53:0F:EE:3F:F1:A7:32:62:81:2C:4A:A0:43:69:5C:7C
    Signature Algorithm: sha256WithRSAEncryption
    Signature Value:
        05:c8:6f:99:f0:be:ac:54:e5:78:42:80:a1:62:06:ca:0a:1c:
        e7:29:d3:d4:a0:08:44:fa:ef:01:96:d8:c9:5c:4e:22:e0:5e:
        7e:ad:5b:20:0c:71:93:7f:22:e5:78:8c:29:fa:3e:27:a0:94:
        5c:b3:de:19:8a:f3:22:94:a1:65:8c:42:30:21:f4:c1:88:4c:
        a1:0b:8c:a7:c1:9a:27:86:ba:d0:5a:52:c8:bd:47:40:f0:a3:
        b9:aa:e3:90:27:6c:3f:8d:5a:20:41:c2:a7:87:9e:69:d9:46:
        04:be:b8:2e:f6:fe:a7:86:02:59:79:4b:63:95:9a:d8:6e:b4:
        ea:ce:ad:12:36:0e:09:06:84:b9:38:6d:4f:1a:d3:71:e9:cf:
        0b:8e:1a:35:dd:2e:7b:58:b2:22:0d:99:2b:18:8e:c4:e7:38:
        e0:12:4c:4f:24:d0:c5:30:4b:b9:7e:d3:56:6e:f8:9c:24:ca:
        7a:0f:92:91:27:44:31:2d:cc:85:eb:da:bb:94:4c:4d:22:83:
        28:9c:f6:1e:b2:93:7c:84:53:33:63:78:9d:c0:6b:c4:11:b3:
        38:46:37:64:16:ab:f3:a6:0e:41:1d:9b:a5:a2:66:b2:e4:3e:
        05:b6:49:90:30:1e:20:d0:c1:88:4f:42:0e:35:06:4e:d4:c4:
        e2:ac:15:a4
-----BEGIN CERTIFICATE-----
MIID8jCCAtqgAwIBAgIUCRtIBF5niCVSVvKIy6iFhAmS4I8wDQYJKoZIhvcNAQEL
BQAwYDELMAkGA1UEBhMCVVMxEzARBgNVBAgMCkNhbGlmb3JuaWExFjAUBgNVBAcM
DU1vdW50YWluIFZpZXcxEDAOBgNVBAoMB1Rlc3QgQ0ExEjAQBgNVBAMMCTEyNy4w
LjAuMTAeFw0yNTExMTUwMDQ3NDFaFw0zNTExMTMwMDQ3NDFaMGAxCzAJBgNVBAYT
AlVTMRMwEQYDVQQIDApDYWxpZm9ybmlhMRYwFAYDVQQHDA1Nb3VudGFpbiBWaWV3
MRAwDgYDVQQKDAdUZXN0IENBMRIwEAYDVQQDDAkxMjcuMC4wLjEwggEiMA0GCSqG
SIb3DQEBAQUAA4IBDwAwggEKAoIBAQC4SNwT0PCJOsmCua/qNAgCWJ3oz0yEDHT/
yz2fQaBoMNzDhFD1NnOXWThe9vYtXtfBhfez00O6yJlIVXg0m4prEaNyzZlGMOi5
uJG/3LsJTlLxfogsBeShnPslfMdS5UflfUxQ7D9S/ejaygjK7l5HnbwiJJCpZXg0
xvliKWltEDakDS9V4X2nd+e9mQnFnWj2Q3aWLTVw/NFsCtGxFiSLw+6Jsvrml1yy
AgSLcqhrObjKA3l+UZGS1/FVvazh4bRG8VDh8vnFYQCuObma1sJ6hnutPqf6tTmg
zt6K70onQNkkuAf1pu1KNQIi9xbIUi2xmAYEOyplxDswoTtZlPT1AgMBAAGjgaMw
gaAwDwYDVR0TAQH/BAUwAwEB/zBuBgNVHREEZzBlhwR/AAAChxD+gAAAAAAAAAAA
AAAAAAABggx0ZXN0LmV4YW1wbGWBEXRlc3RAdGVzdC5leGFtcGxloBIGAyoDBKAL
DAlpZ25vcmUgbWWkFjAUMRIwEAYDVQQDDAkxMjcuMC4wLjMwHQYDVR0OBBYEFL7M
19JTD+4/8acyYoEsSqBDaVx8MA0GCSqGSIb3DQEBCwUAA4IBAQAFyG+Z8L6sVOV4
QoChYgbKChznKdPUoAhE+u8BltjJXE4i4F5+rVsgDHGTfyLleIwp+j4noJRcs94Z
ivMilKFljEIwIfTBiEyhC4ynwZonhrrQWlLIvUdA8KO5quOQJ2w/jVogQcKnh55p
2UYEvrgu9v6nhgJZeUtjlZrYbrTqzq0SNg4JBoS5OG1PGtNx6c8Ljho13S57WLIi
DZkrGI7E5zjgEkxPJNDFMEu5ftNWbvicJMp6D5KRJ0QxLcyF69q7lExNIoMonPYe
spN8hFMzY3idwGvEEbM4RjdkFqvzpg5BHZulomay5D4FtkmQMB4g0MGIT0IONQZO
1MTirBWk
-----END CERTIFICATE-----
