Certificate:
    Data:
        Version: 3 (0x2)
        Serial Number:
            3e:14:12:59:27:a3:89:52:46:c9:34:d8:f6:3f:0d:3a:4c:7c:3a:37
        Signature Algorithm: sha256WithRSAEncryption
        Issuer: C=US, ST=California, L=Mountain View, O=Test CA, CN=127.0.0.1
        Validity
            Not Before: Nov 15 00:47:41 2025 GMT
            Not After : Nov 13 00:47:41 2035 GMT
        Subject: C=US, ST=California, L=Mountain View, O=Test CA, CN=127.0.0.1
        Subject Public Key Info:
            Public Key Algorithm: rsaEncryption
                Public-Key: (2048 bit)
                Modulus:
                    00:da:32:ef:c1:14:fa:e2:eb:8a:8a:08:05:68:82:
                    c4:9a:37:51:51:11:d0:83:69:1b:81:83:89:3a:57:
                    17:ce:3c:98:3e:17:f3:77:2c:2d:0b:e4:40:70:54:
                    d5:5f:37:5c:b4:7c:a1:4f:40:6c:2a:88:bb:35:8e:
                    4a:a9:7f:05:d6:e8:ec:85:0e:ae:f1:9b:92:f3:f3:
                    6a:02:49:c1:53:78:e7:fd:15:74:b6:04:d5:79:e8:
                    a6:26:a4:b2:2c:c6:33:a6:0f:b0:45:e6:09:99:3a:
                    68:d7:70:a2:bc:30:d3:65:c3:3f:89:40:ea:94:ef:
                    41:0a:f5:56:38:41:85:e8:46:69:94:3e:73:84:5e:
                    43:c6:d2:b8:46:4a:d8:64:25:40:cb:da:c1:e3:2e:
                    c0:77:43:3d:76:18:cc:f0:aa:f7:0c:53:2d:fb:b6:
                    98:c6:50:f8:c6:6a:bd:1c:88:61:f0:16:05:09:13:
                    47:5e:2f:2c:4f:98:54:d1:93:a0:d6:b8:c9:40:b5:
                    fe:7b:f2:e8:35:65:fa:30:69:76:ab:76:33:c6:57:
                    e3:a7:53:79:58:b4:bd:9d:15:a1:23:cc:1a:14:5b:
                    7f:fd:3f:dc:4c:95:e0:6c:57:08:e2:cd:2f:9d:da:
                    e4:c4:78:f4:1c:87:61:e6:ef:4f:9d:eb:f4:42:9f:
                    85:ff
                Exponent: 65537 (0x10001)
        X509v3 extensions:
            X509v3 Basic Constraints: critical
                CA:TRUE
            X509v3 Subject Alternative Name: 
                DNS:www.example.com
            X509v3 Subject Key Identifier: 
                8F:5D:E1:95:CC:5B:AB:02:60:72:B7:20:95:03:13:46:19:33:30:AC
    Signature Algorithm: sha256WithRSAEncryption
    Signature Value:
        1f:3a:1f:2f:60:fb:20:80:97:fd:c8:48:8b:e9:2d:7c:f4:0f:
        e3:c3:de:3b:fd:10:49:46:26:18:f3:30:43:bf:88:2d:7f:d8:
        08:d4:79:fd:57:7e:3c:c5:89:55:8d:b5:4e:86:d4:4f:f3:d4:
        0a:dc:c4:85:12:49:d1:7b:fb:ef:fd:d6:ea:fe:b9:6c:b9:c2:
        07:4c:c7:3f:21:2b:d4:c2:0d:97:5e:a4:05:f0:c1:ec:a7:ee:
        d2:53:64:8c:87:84:7b:9f:2e:af:19:36:44:d9:a0:9a:bc:b2:
        9f:4b:4e:58:9b:3f:bd:59:73:9a:4b:85:94:54:1f:53:d8:fe:
        b3:83:87:d1:ba:07:93:53:92:9d:63:4c:82:dc:fd:f0:65:46:
        54:90:38:c0:51:4e:85:23:64:8d:c0:d7:16:ca:e7:de:a0:2d:
        b4:68:df:9f:bd:a8:74:63:0b:56:46:fe:fa:d8:a2:f3:6b:ae:
        20:19:01:0d:d1:13:d2:45:ca:dd:dd:6d:9c:11:b7:89:99:d1:
        52:9b:a5:4c:bd:e8:58:31:de:97:b6:63:eb:05:65:83:af:85:
        c2:2d:e9:23:8c:f7:72:20:e0:0f:d3:a3:0c:1a:a9:0c:c1:1f:
        1b:37:e0:f3:1e:05:88:b9:06:5b:fb:ef:85:fe:79:ab:18:72:
        03:44:7e:71
-----BEGIN CERTIFICATE-----
MIIDnDCCAoSgAwIBAgIUPhQSWSejiVJGyTTY9j8NOkx8OjcwDQYJKoZIhvcNAQEL
BQAwYDELMAkGA1UEBhMCVVMxEzARBgNVBAgMCkNhbGlmb3JuaWExFjAUBgNVBAcM
DU1vdW50YWluIFZpZXcxEDAOBgNVBAoMB1Rlc3QgQ0ExEjAQBgNVBAMMCTEyNy4w
LjAuMTAeFw0yNTExMTUwMDQ3NDFaFw0zNTExMTMwMDQ3NDFaMGAxCzAJBgNVBAYT
AlVTMRMwEQYDVQQIDApDYWxpZm9ybmlhMRYwFAYDVQQHDA1Nb3VudGFpbiBWaWV3
MRAwDgYDVQQKDAdUZXN0IENBMRIwEAYDVQQDDAkxMjcuMC4wLjEwggEiMA0GCSqG
SIb3DQEBAQUAA4IBDwAwggEKAoIBAQDaMu/BFPri64qKCAVogsSaN1FREdCDaRuB
g4k6VxfOPJg+F/N3LC0L5EBwVNVfN1y0fKFPQGwqiLs1jkqpfwXW6OyFDq7xm5Lz
82oCScFTeOf9FXS2BNV56KYmpLIsxjOmD7BF5gmZOmjXcKK8MNNlwz+JQOqU70EK
9VY4QYXoRmmUPnOEXkPG0rhGSthkJUDL2sHjLsB3Qz12GMzwqvcMUy37tpjGUPjG
ar0ciGHwFgUJE0deLyxPmFTRk6DWuMlAtf578ug1ZfowaXardjPGV+OnU3lYtL2d
FaEjzBoUW3/9P9xMleBsVwjizS+d2uTEePQch2Hm70+d6/RCn4X/AgMBAAGjTjBM
MA8GA1UdEwEB/wQFMAMBAf8wGgYDVR0RBBMwEYIPd3d3LmV4YW1wbGUuY29tMB0G
A1UdDgQWBBSPXeGVzFurAmBytyCVAxNGGTMwrDANBgkqhkiG9w0BAQsFAAOCAQEA
HzofL2D7IICX/chIi+ktfPQP48PeO/0QSUYmGPMwQ7+ILX/YCNR5/Vd+PMWJVY21
TobUT/PUCtzEhRJJ0Xv77/3W6v65bLnCB0zHPyEr1MINl16kBfDB7Kfu0lNkjIeE
e58urxk2RNmgmryyn0tOWJs/vVlzmkuFlFQfU9j+s4OH0boHk1OSnWNMgtz98GVG
VJA4wFFOhSNkjcDXFsrn3qAttGjfn72odGMLVkb++tii82uuIBkBDdET0kXK3d1t
nBG3iZnRUpulTL3oWDHel7Zj6wVlg6+Fwi3pI4z3ciDgD9OjDBqpDMEfGzfg8x4F
iLkGW/vvhf55qxhyA0R+cQ==
-----END CERTIFICATE-----
