-----BEGIN PRIVATE KEY-----
MIIEvQIBADANBgkqhkiG9w0BAQEFAASCBKcwggSjAgEAAoIBAQC/YhJcAr1m0ACU
h3Byf5G1zDF+1LurMi7E8SLbzYbBxv5nlPVQC2dEtmqcY2C8xgHaQ52lxWVH8sBJ
YzBpglpaBzt9YlbSvE7qXXWmErE/2Nb0EcRE9c5aJMd69b35l7TeebpO/Txba271
ufRzbmi9EdsjL07f+ZGbzD2h/thmATcRIHvcDaNlmk8gpiRJlZn1KNdNYS5Ma5s8
W9ddGkLFqRt9PbbWkBK7EdYV2g+1Cvdi2GjCtEX194n3Adx+UePAoXAdjGkAIRZS
supd8RcJkpyt+M3WCPhgHAZitf1ati/ngcTIH/xhe53LR4w7zUB6WqSTN4/3sYoU
9aikl9yZAgMBAAECggEADm3JbpByUScLdCdF7gv6I1eyv5owT/bnmceIVkQHjeJ/
2bVcTV2euop6PTIs3+6Zwyfn4dChEyyVHLNSuhGu2CzFam2YmCjEVl0Xep7cKDEj
+6C/SGez2A3/0CBo40FxzHgm+L+U5luSMQqFCJLhaKfI+r0dWDuLo9BhMS5yiDYb
3Wgt6HfTdATZ0xiGGacN9iK1VZk/a0BBjtjonJWOcoTRqakFNpU0rd322Y30t87d
rZVwB/fk5a5OEOqDtYknlrD/cK3j9qLtxfidNgK7FzwdTgGTl5S7rGRpiBKAi/9c
7LqdmKNnYJFpOoAHSbrwx1r2Ep4Si1JtswMXKGVzpQKBgQDdw7BLE2AeF2jx1UUM
vh7ljqG8LOa1hS6Bwa0LF84PoHmWL7sOYiyRazO6u9TsbJeQ6WKbVE2oktK1RsfD
/qq60fNzXbRFJeY55BP5pXP8M9dXl4f6ucQbcEOWEStICP7KbTjPlp6Jq2LKVSb4
hZbiDhpsjFT7eh9H/Xzw16P3RwKBgQDc7bBD0SMIcrQ/gXPJJSDSSSr2A5bdDytx
Fj+I/nZ56mrwXz8M/UCsn11eyH3ypPSk/MvHCZRsSsg0hymJFQg/em+0BeBK/ptq
jk8xc9d1ZyfJaFxUAktuDdb98hqBK8uOF9C9EYm8sw0TTDLTWUA9Cn8LO1zLcSNU
M+1I5ic9HwKBgArwmWTKuuYhH4M2kyZyxpFqfN4MlQEFZeruw/uVHAw3TWg0SJUI
EMzHrhCbLYDQRpXWfY/OE9qqC4z3xekMSh3XN5xMVhVHLllSwA2DtPoPEKN4jTO4
ME1uN1dS14DBONiBlNjgxEdkVgZHNxnxdSUHrxQFxDd3qc1iWuSCrssHAoGBALM9
G45JtHR8KwSC0B9WwgQZXINvcgwy7Hm5JR7N4+0RZGVTwOGW7cufF694VcZwUhMx
DVqTyRj6qucC6Y3PxHtLqCiTw97UJd8TSejDJQCZCkx7ILz/h5boH46zxxEZKPJF
HBLokajIU0levrV9aYKca2n/ZU+goJsF7fMA1sDdAoGAMwYcQQ9XJLIVR3c1+cPm
ZXwod+8SRf8cr9G9YxVg74+DzPoC4D6nLLoMztsIEbqs32BROhFAIPkxUx8t3B+w
BAD+gaC3vgesecqPKWY8a7OhyNYKxSAaMp9EH1ywNX456OabzXIrXi8h0UVeEjmL
lrUqZQ2VvXn8/MApYF+5AJg=
-----END PRIVATE KEY-----
Certificate:
    Data:
        Version: 3 (0x2)
        Serial Number:
            14:c8:c7:f1:f1:6b:91:0b:18:45:4b:c0:65:f2:fc:0d
        Signature Algorithm: sha256WithRSAEncryption
        Issuer: C=US, ST=California, L=Mountain View, O=Test CA, CN=Test Root CA
        Validity
            Not Before: Nov 15 00:47:41 2025 GMT
            Not After : Nov 15 00:47:41 2027 GMT
        Subject: C=US, ST=California, L=Mountain View, O=Test CA, CN=127.0.0.1
        Subject Public Key Info:
            Public Key Algorithm: rsaEncryption
                Public-Key: (2048 bit)
                Modulus:
                    00:bf:62:12:5c:02:bd:66:d0:00:94:87:70:72:7f:
                    91:b5:cc:31:7e:d4:bb:ab:32:2e:c4:f1:22:db:cd:
                    86:c1:c6:fe:67:94:f5:50:0b:67:44:b6:6a:9c:63:
                    60:bc:c6:01:da:43:9d:a5:c5:65:47:f2:c0:49:63:
                    30:69:82:5a:5a:07:3b:7d:62:56:d2:bc:4e:ea:5d:
                    75:a6:12:b1:3f:d8:d6:f4:11:c4:44:f5:ce:5a:24:
                    c7:7a:f5:bd:f9:97:b4:de:79:ba:4e:fd:3c:5b:6b:
                    6e:f5:b9:f4:73:6e:68:bd:11:db:23:2f:4e:df:f9:
                    91:9b:cc:3d:a1:fe:d8:66:01:37:11:20:7b:dc:0d:
                    a3:65:9a:4f:20:a6:24:49:95:99:f5:28:d7:4d:61:
                    2e:4c:6b:9b:3c:5b:d7:5d:1a:42:c5:a9:1b:7d:3d:
                    b6:d6:90:12:bb:11:d6:15:da:0f:b5:0a:f7:62:d8:
                    68:c2:b4:45:f5:f7:89:f7:01:dc:7e:51:e3:c0:a1:
                    70:1d:8c:69:00:21:16:52:b2:ea:5d:f1:17:09:92:
                    9c:ad:f8:cd:d6:08:f8:60:1c:06:62:b5:fd:5a:b6:
                    2f:e7:81:c4:c8:1f:fc:61:7b:9d:cb:47:8c:3b:cd:
                    40:7a:5a:a4:93:37:8f:f7:b1:8a:14:f5:a8:a4:97:
                    dc:99
                Exponent: 65537 (0x10001)
        X509v3 extensions:
            X509v3 Basic Constraints: critical
                CA:FALSE
            X509v3 Subject Key Identifier: 
                45:0D:FA:A4:6B:B9:A7:1C:93:E8:AE:AF:C4:13:39:12:D4:2F:E0:5D
            X509v3 Authority Key Identifier: 
                9B:26:0B:8A:98:A9:BB:1D:B9:1F:1C:E3:1A:40:33:ED:8E:17:88:AB
            X509v3 Extended Key Usage: 
                TLS Web Server Authentication, TLS Web Client Authentication
            X509v3 Subject Alternative Name: 
                DNS:a.test, DNS:*.a.test, DNS:b.test, DNS:*.b.test, DNS:c.test, DNS:*.c.test, DNS:d.test, DNS:*.d.test
    Signature Algorithm: sha256WithRSAEncryption
    Signature Value:
        3f:71:4a:33:60:20:6e:5c:40:f4:73:f8:7d:58:b6:f0:5b:25:
        d8:43:21:f0:f7:eb:3b:9c:b8:01:93:41:2d:bb:24:71:a1:49:
        03:3c:41:e4:fa:9a:12:73:dd:2d:36:b9:38:87:44:49:e5:d1:
        0a:7f:33:a2:74:ca:ff:65:f8:75:ec:ff:80:76:68:b7:ac:7f:
        07:05:2f:83:3d:5c:5c:6e:ba:92:1c:9d:3a:2e:4d:19:cd:12:
        40:f4:e6:6c:6a:32:75:dc:74:29:44:75:88:0e:09:73:d2:2a:
        0e:43:6e:01:8e:1f:26:c4:f3:c2:0d:6b:a0:ff:48:32:bc:f8:
        c3:b3:a0:d3:21:8e:48:16:64:97:7f:b9:66:35:5e:4a:06:e8:
        59:96:77:a7:74:57:9a:08:64:6d:3c:85:19:04:c4:7c:d5:da:
        b5:e6:73:67:7e:f0:96:05:6a:ad:7a:47:1f:34:4e:65:d6:67:
        60:6a:1e:a7:66:ee:77:69:db:7c:6f:b8:ea:b2:0b:30:d4:05:
        27:80:ee:28:c6:13:ce:97:ee:74:d7:a0:51:f9:1f:12:9a:4b:
        ab:16:2d:bc:91:c8:01:b7:6a:8d:38:08:c1:f3:0c:40:ab:0e:
        ea:1a:aa:77:2e:0f:aa:91:4b:37:50:fc:0b:af:dc:ca:29:f2:
        92:16:a5:14
-----BEGIN CERTIFICATE-----
MIIEETCCAvmgAwIBAgIQFMjH8fFrkQsYRUvAZfL8DTANBgkqhkiG9w0BAQsFADBj
MQswCQYDVQQGEwJVUzETMBEGA1UECAwKQ2FsaWZvcm5pYTEWMBQGA1UEBwwNTW91
bnRhaW4gVmlldzEQMA4GA1UECgwHVGVzdCBDQTEVMBMGA1UEAwwMVGVzdCBSb290
IENBMB4XDTI1MTExNTAwNDc0MVoXDTI3MTExNTAwNDc0MVowYDELMAkGA1UEBhMC
VVMxEzARBgNVBAgMCkNhbGlmb3JuaWExFjAUBgNVBAcMDU1vdW50YWluIFZpZXcx
EDAOBgNVBAoMB1Rlc3QgQ0ExEjAQBgNVBAMMCTEyNy4wLjAuMTCCASIwDQYJKoZI
hvcNAQEBBQADggEPADCCAQoCggEBAL9iElwCvWbQAJSHcHJ/kbXMMX7Uu6syLsTx
ItvNhsHG/meU9VALZ0S2apxjYLzGAdpDnaXFZUfywEljMGmCWloHO31iVtK8Tupd
daYSsT/Y1vQRxET1zlokx3r1vfmXtN55uk79PFtrbvW59HNuaL0R2yMvTt/5kZvM
PaH+2GYBNxEge9wNo2WaTyCmJEmVmfUo101hLkxrmzxb110aQsWpG309ttaQErsR
1hXaD7UK92LYaMK0RfX3ifcB3H5R48ChcB2MaQAhFlKy6l3xFwmSnK34zdYI+GAc
BmK1/Vq2L+eBxMgf/GF7nctHjDvNQHpapJM3j/exihT1qKSX3JkCAwEAAaOBwzCB
wDAMBgNVHRMBAf8EAjAAMB0GA1UdDgQWBBRFDfqka7mnHJPorq/EEzkS1C/gXTAf
BgNVHSMEGDAWgBSbJguKmKm7HbkfHOMaQDPtjheIqzAdBgNVHSUEFjAUBggrBgEF
BQcDAQYIKwYBBQUHAwIwUQYDVR0RBEowSIIGYS50ZXN0gggqLmEudGVzdIIGYi50
ZXN0gggqLmIudGVzdIIGYy50ZXN0gggqLmMudGVzdIIGZC50ZXN0gggqLmQudGVz
dDANBgkqhkiG9w0BAQsFAAOCAQEAP3FKM2AgblxA9HP4fVi28Fsl2EMh8PfrO5y4
AZNBLbskcaFJAzxB5PqaEnPdLTa5OIdESeXRCn8zonTK/2X4dez/gHZot6x/BwUv
gz1cXG66khydOi5NGc0SQPTmbGoyddx0KUR1iA4Jc9IqDkNuAY4fJsTzwg1roP9I
Mrz4w7Og0yGOSBZkl3+5ZjVeSgboWZZ3p3RXmghkbTyFGQTEfNXateZzZ37wlgVq
rXpHHzROZdZnYGoep2bud2nbfG+46rILMNQFJ4DuKMYTzpfudNegUfkfEppLqxYt
vJHIAbdqjTgIwfMMQKsO6hqqdy4PqpFLN1D8C6/cyinykhalFA==
-----END CERTIFICATE-----
