-----BEGIN PRIVATE KEY-----
MIIEvQIBADANBgkqhkiG9w0BAQEFAASCBKcwggSjAgEAAoIBAQCtHZTAxIAlCLF+
VUYlvmW9wv+VjrU1xuPIRo/NIzyEzuyB7yFVlI+/oaEnZNlW5f2g+nPEsFKCdre9
A7K87eht+B8RYDowTdQqfgODOEIOWZ8MTL1WqenW+DKl6xNnVQKog6TdC9+hD/AY
YTin94DuHr2VC2zvEzrjspq7kf+FlTjU+MT86toS/t+cLhBpwBPbLmH18LEs5999
aEdUtFZwcJMTQT1i9PqYpNwiDKT9fIhMDIoa9CumyY+gT7tQ+tGlojNQICswU99U
LiS2KIg1JxFQ/KJoproTnFuxgwQAg7iGmJx/OtcXdus7HdO6mIEF/Q4l75KHaDWp
bRTl92G9AgMBAAECggEAepmBeIdxLUkb0pl3pVFS4nIP6Y34fY5OUM7QFnqG6JNW
4apF1ELzDsbbx3dfiHA3D+NvS3OH64dCFqVg1vYx7neTIQ4iB4WG5VT7DdowxdLo
laBfUtnglnKOA/0Yb8y/pjIc9sLq7DjKU6m+ow3gjELPBpfh3OqkgQ9DD+WUrbfW
0zTRKPuKnz5xfs2Lv6kUz7AriePGt2pf860WMGqzRwGZ+968seXiKZLPWToDu7l5
42YN8JAtDIwwe+87fp9Hxzv+sqembnl7Je8yklk6aCcNxg2zNfcWWCDvzV4YQ3FK
ocONxFXFipKk3dHx9G04AEC6uYqhMSyQlev9Rt/zoQKBgQDc2jbPmru5PmqGHtLa
Ih8KAvGcywSQsLqP2KbmDBR9Ajs9+yHa9IqNZPfE98fNtiiDSjEyOI0fZq3YHaLg
BZzFsrn4UuTJJYPX3rJBc1TmsS8aZ8RkqiVhWBdKasAPBDUUWEaWxbqAXhKjgrNw
K7xNmFASk7f1UjLvVE0LXd55dQKBgQDIqoMC6iXMQP7i/TW8P9jrvy3/dnVFdhN9
d7sFasApdwGsJVb5XWWIqA62lcdi+0sNnMgw4SZbPJlWLgcDiahJJe8hhQbHgLYK
j90VIYYl1FXUvZ2RjpgiwTR2I+iPPAyNRiFxVLiYEn8sGckDDEDG+eiDg9jOZ0aB
0Q3cprJ2KQKBgQCgzen2wy1INeAOA8d2uD1tZrNRfKi4SVWtgwwSmF0aoFNOT9pY
uJFhXlDhg6Bhce6RmaW0cWSfpn2RzBJZlvyNHhM2cfTPWJdkyGt2KGl7ByvKyB9B
RHmvJRrgPlXVGTUkuRm8kf+3k8dycqoAVHfo76vtuszIvK8Ff5YRXqmsOQKBgGe8
fm4LTe8BysLd0+G1wBZfhxAB1S5LlFfQhcaPIThOZXbw9r2DIvI6ryCE3ca10l7/
Jh7exk10TnDW6plRmMX37l+Nvat1Rqa/KLO72PXFh3mrbMHKzatp5g0NEzS4/mQq
VS+ZdLRpG4VY7ym8M+CpYSJcDsDlcvW5dUkUhD3BAoGAWskpxGJtWs5MaxrCA7Cs
XFMA4kFzdavnEQXtdm3VkdlrpJW04Yt6YLSVzeLsfZdK8x7RAiIrsTwSRHnYjCBJ
PTUU5ibJPFj7pKEJkXnAYJy41fzbLHUuL+X8liKms1pXJmcbUVPZq+eem/J3omls
CgleVqA09PTkNcz+Xy6KQpY=
-----END PRIVATE KEY-----
Certificate:
    Data:
        Version: 3 (0x2)
        Serial Number:
            14:c8:c7:f1:f1:6b:91:0b:18:45:4b:c0:65:f2:fc:0a
        Signature Algorithm: sha256WithRSAEncryption
        Issuer: C=US, ST=California, L=Mountain View, O=Test CA, CN=Test Root CA
        Validity
            Not Before: Nov 15 00:47:41 2025 GMT
            Not After : Nov 13 00:47:41 2035 GMT
        Subject: C=US, ST=California, L=Mountain View, O=Test CA, CN=127.0.0.1
        Subject Public Key Info:
            Public Key Algorithm: rsaEncryption
                Public-Key: (2048 bit)
                Modulus:
                    00:ad:1d:94:c0:c4:80:25:08:b1:7e:55:46:25:be:
                    65:bd:c2:ff:95:8e:b5:35:c6:e3:c8:46:8f:cd:23:
                    3c:84:ce:ec:81:ef:21:55:94:8f:bf:a1:a1:27:64:
                    d9:56:e5:fd:a0:fa:73:c4:b0:52:82:76:b7:bd:03:
                    b2:bc:ed:e8:6d:f8:1f:11:60:3a:30:4d:d4:2a:7e:
                    03:83:38:42:0e:59:9f:0c:4c:bd:56:a9:e9:d6:f8:
                    32:a5:eb:13:67:55:02:a8:83:a4:dd:0b:df:a1:0f:
                    f0:18:61:38:a7:f7:80:ee:1e:bd:95:0b:6c:ef:13:
                    3a:e3:b2:9a:bb:91:ff:85:95:38:d4:f8:c4:fc:ea:
                    da:12:fe:df:9c:2e:10:69:c0:13:db:2e:61:f5:f0:
                    b1:2c:e7:df:7d:68:47:54:b4:56:70:70:93:13:41:
                    3d:62:f4:fa:98:a4:dc:22:0c:a4:fd:7c:88:4c:0c:
                    8a:1a:f4:2b:a6:c9:8f:a0:4f:bb:50:fa:d1:a5:a2:
                    33:50:20:2b:30:53:df:54:2e:24:b6:28:88:35:27:
                    11:50:fc:a2:68:a6:ba:13:9c:5b:b1:83:04:00:83:
                    b8:86:98:9c:7f:3a:d7:17:76:eb:3b:1d:d3:ba:98:
                    81:05:fd:0e:25:ef:92:87:68:35:a9:6d:14:e5:f7:
                    61:bd
                Exponent: 65537 (0x10001)
        X509v3 extensions:
            X509v3 Basic Constraints: critical
                CA:FALSE
            X509v3 Subject Key Identifier: 
                E7:1B:C5:0D:E7:ED:C7:2B:2E:95:91:40:77:5A:57:DE:1C:F4:D7:FE
            X509v3 Authority Key Identifier: 
                9B:26:0B:8A:98:A9:BB:1D:B9:1F:1C:E3:1A:40:33:ED:8E:17:88:AB
            X509v3 Extended Key Usage: 
                TLS Web Server Authentication, TLS Web Client Authentication
            X509v3 Subject Alternative Name: 
                DNS:*.example.org
    Signature Algorithm: sha256WithRSAEncryption
    Signature Value:
        c5:df:da:b1:8b:5c:25:6d:b5:88:07:55:b3:5d:10:26:f1:f3:
        24:c9:8d:55:b7:01:c1:62:2c:d7:fb:f6:8b:3a:33:8b:3c:e0:
        d2:44:8d:0d:f6:34:17:c8:9c:1c:6d:1e:af:fb:9c:0c:2d:70:
        b0:ab:01:ac:60:51:f0:63:06:2e:c0:e8:c1:a0:c0:b2:9a:e7:
        1b:21:ea:28:a9:65:87:54:cf:c4:85:a2:0d:9d:c0:07:c3:b7:
        64:a4:0f:f3:98:7f:9e:e2:f1:f1:fb:84:85:86:13:d1:69:59:
        55:9c:03:4b:0f:97:5a:5c:b9:86:6c:04:67:b3:f7:3f:cf:43:
        2d:da:19:0d:46:7c:c0:2c:89:f2:df:f1:19:37:99:9d:58:5c:
        24:ad:b4:56:b5:61:48:7e:24:de:94:3a:8d:d0:46:93:c9:4c:
        46:1c:b9:42:01:99:8a:20:cc:02:f6:40:eb:13:78:c1:a6:7c:
        41:f5:1b:f0:b1:c8:e4:3c:97:15:b6:94:2b:f0:e2:8f:8c:d0:
        9b:d8:0e:31:28:75:0e:a7:be:b9:46:45:d5:91:95:22:f7:03:
        22:c8:23:fc:7b:3b:51:cc:4a:ae:90:da:53:b1:6e:50:28:bf:
        af:05:0e:c4:99:2b:57:29:82:d6:ed:18:20:ae:de:e2:df:7c:
        b2:69:ea:d3
-----BEGIN CERTIFICATE-----
MIID2DCCAsCgAwIBAgIQFMjH8fFrkQsYRUvAZfL8CjANBgkqhkiG9w0BAQsFADBj
MQswCQYDVQQGEwJVUzETMBEGA1UECAwKQ2FsaWZvcm5pYTEWMBQGA1UEBwwNTW91
bnRhaW4gVmlldzEQMA4GA1UECgwHVGVzdCBDQTEVMBMGA1UEAwwMVGVzdCBSb290
IENBMB4XDTI1MTExNTAwNDc0MVoXDTM1MTExMzAwNDc0MVowYDELMAkGA1UEBhMC
VVMxEzARBgNVBAgMCkNhbGlmb3JuaWExFjAUBgNVBAcMDU1vdW50YWluIFZpZXcx
EDAOBgNVBAoMB1Rlc3QgQ0ExEjAQBgNVBAMMCTEyNy4wLjAuMTCCASIwDQYJKoZI
hvcNAQEBBQADggEPADCCAQoCggEBAK0dlMDEgCUIsX5VRiW+Zb3C/5WOtTXG48hG
j80jPITO7IHvIVWUj7+hoSdk2Vbl/aD6c8SwUoJ2t70Dsrzt6G34HxFgOjBN1Cp+
A4M4Qg5ZnwxMvVap6db4MqXrE2dVAqiDpN0L36EP8BhhOKf3gO4evZULbO8TOuOy
mruR/4WVONT4xPzq2hL+35wuEGnAE9suYfXwsSzn331oR1S0VnBwkxNBPWL0+pik
3CIMpP18iEwMihr0K6bJj6BPu1D60aWiM1AgKzBT31QuJLYoiDUnEVD8omimuhOc
W7GDBACDuIaYnH861xd26zsd07qYgQX9DiXvkodoNaltFOX3Yb0CAwEAAaOBijCB
hzAMBgNVHRMBAf8EAjAAMB0GA1UdDgQWBBTnG8UN5+3HKy6VkUB3WlfeHPTX/jAf
BgNVHSMEGDAWgBSbJguKmKm7HbkfHOMaQDPtjheIqzAdBgNVHSUEFjAUBggrBgEF
BQcDAQYIKwYBBQUHAwIwGAYDVR0RBBEwD4INKi5leGFtcGxlLm9yZzANBgkqhkiG
9w0BAQsFAAOCAQEAxd/asYtcJW21iAdVs10QJvHzJMmNVbcBwWIs1/v2izozizzg
0kSNDfY0F8icHG0er/ucDC1wsKsBrGBR8GMGLsDowaDAsprnGyHqKKllh1TPxIWi
DZ3AB8O3ZKQP85h/nuLx8fuEhYYT0WlZVZwDSw+XWly5hmwEZ7P3P89DLdoZDUZ8
wCyJ8t/xGTeZnVhcJK20VrVhSH4k3pQ6jdBGk8lMRhy5QgGZiiDMAvZA6xN4waZ8
QfUb8LHI5DyXFbaUK/Dij4zQm9gOMSh1Dqe+uUZF1ZGVIvcDIsgj/Hs7UcxKrpDa
U7FuUCi/rwUOxJkrVymC1u0YIK7e4t98smnq0w==
-----END CERTIFICATE-----
